
Discarded input sections

 .gnu.linkonce.t._ZN4obos12multitasking6ThreadD1Ev
                0x00000000       0x39 src/oboskrnl/CMakeFiles/oboskrnl.dir/multitasking/multitasking.cpp.o
 .gnu.linkonce.t._ZN4obos12multitasking6ThreadD0Ev
                0x00000000       0x26 src/oboskrnl/CMakeFiles/oboskrnl.dir/multitasking/multitasking.cpp.o
 .gnu.linkonce.r._ZTVN4obos12multitasking6ThreadE
                0x00000000       0x10 src/oboskrnl/CMakeFiles/oboskrnl.dir/multitasking/multitasking.cpp.o
 .gnu.linkonce.t._ZN4obos12multitasking6ThreadD1Ev
                0x00000000       0x39 src/oboskrnl/CMakeFiles/oboskrnl.dir/multitasking/thread.cpp.o
 .gnu.linkonce.t._ZN4obos12multitasking6ThreadD0Ev
                0x00000000       0x26 src/oboskrnl/CMakeFiles/oboskrnl.dir/multitasking/thread.cpp.o
 .gnu.linkonce.r._ZTVN4obos12multitasking6ThreadE
                0x00000000       0x10 src/oboskrnl/CMakeFiles/oboskrnl.dir/multitasking/thread.cpp.o

Memory Configuration

Name             Origin             Length             Attributes
*default*        0x00000000         0xffffffff

Linker script and memory map

LOAD /tmp/ccVjbtzD.o
LOAD /home/omar/opt/cross/lib/gcc/i686-elf/11.4.0/crtbegin.o
LOAD /home/omar/opt/cross/lib/gcc/i686-elf/11.4.0/crtend.o
LOAD /tmp/ccrgPVSL.o
LOAD /home/omar/opt/cross/lib/gcc/i686-elf/11.4.0/libgcc.a
LOAD src/oboskrnl/CMakeFiles/oboskrnl.dir/boot/kernel_bootstrap-i686.asm.o
LOAD src/oboskrnl/CMakeFiles/oboskrnl.dir/descriptors/gdt/gdt.asm.o
LOAD src/oboskrnl/CMakeFiles/oboskrnl.dir/descriptors/idt/idt.asm.o
LOAD src/oboskrnl/CMakeFiles/oboskrnl.dir/descriptors/idt/handlers.asm.o
LOAD src/oboskrnl/CMakeFiles/oboskrnl.dir/memory_manager/paging/init.asm.o
LOAD src/oboskrnl/CMakeFiles/oboskrnl.dir/multitasking/multitasking.asm.o
LOAD src/oboskrnl/CMakeFiles/oboskrnl.dir/utils/memcpy.asm.o
LOAD src/oboskrnl/CMakeFiles/oboskrnl.dir/boot/kmain.cpp.o
LOAD src/oboskrnl/CMakeFiles/oboskrnl.dir/console.cpp.o
LOAD src/oboskrnl/CMakeFiles/oboskrnl.dir/klog.cpp.o
LOAD src/oboskrnl/CMakeFiles/oboskrnl.dir/inline-asm.cpp.o
LOAD src/oboskrnl/CMakeFiles/oboskrnl.dir/descriptors/gdt/gdt.cpp.o
LOAD src/oboskrnl/CMakeFiles/oboskrnl.dir/descriptors/idt/idt.cpp.o
LOAD src/oboskrnl/CMakeFiles/oboskrnl.dir/memory_manager/physical.cpp.o
LOAD src/oboskrnl/CMakeFiles/oboskrnl.dir/utils/bitfields.cpp.o
LOAD src/oboskrnl/CMakeFiles/oboskrnl.dir/descriptors/idt/pic.cpp.o
LOAD src/oboskrnl/CMakeFiles/oboskrnl.dir/memory_manager/paging/init.cpp.o
LOAD src/oboskrnl/CMakeFiles/oboskrnl.dir/memory_manager/paging/allocate.cpp.o
LOAD src/oboskrnl/CMakeFiles/oboskrnl.dir/utils/memory.cpp.o
LOAD src/oboskrnl/CMakeFiles/oboskrnl.dir/memory_manager/paging/liballoc_hooks.cpp.o
LOAD src/oboskrnl/CMakeFiles/oboskrnl.dir/memory_manager/liballoc/liballoc.c.o
LOAD src/oboskrnl/CMakeFiles/oboskrnl.dir/external/list/list_iterator.c.o
LOAD src/oboskrnl/CMakeFiles/oboskrnl.dir/external/list/list_node.c.o
LOAD src/oboskrnl/CMakeFiles/oboskrnl.dir/external/list/list.c.o
LOAD src/oboskrnl/CMakeFiles/oboskrnl.dir/multitasking/multitasking.cpp.o
LOAD src/oboskrnl/CMakeFiles/oboskrnl.dir/multitasking/threadHandle.cpp.o
LOAD src/oboskrnl/CMakeFiles/oboskrnl.dir/multitasking/thread.cpp.o
LOAD src/oboskrnl/CMakeFiles/oboskrnl.dir/multitasking/mutex/mutex.cpp.o
LOAD src/oboskrnl/CMakeFiles/oboskrnl.dir/multitasking/mutex/mutexHandle.cpp.o
                0x00100000                        . = 0x100000

.text           0x00100000     0x6848
 *(.multiboot)
 .multiboot     0x00100000       0x30 src/oboskrnl/CMakeFiles/oboskrnl.dir/boot/kernel_bootstrap-i686.asm.o
 *(.text)
 .text          0x00100030        0x0 /tmp/ccVjbtzD.o
 .text          0x00100030      0x145 /home/omar/opt/cross/lib/gcc/i686-elf/11.4.0/crtbegin.o
 *fill*         0x00100175        0xb 
 .text          0x00100180       0x41 /home/omar/opt/cross/lib/gcc/i686-elf/11.4.0/crtend.o
 .text          0x001001c1        0x0 /tmp/ccrgPVSL.o
 *fill*         0x001001c1        0xf 
 .text          0x001001d0       0x12 src/oboskrnl/CMakeFiles/oboskrnl.dir/boot/kernel_bootstrap-i686.asm.o
                0x001001d0                _start
 *fill*         0x001001e2        0xe 
 .text          0x001001f0       0x1d src/oboskrnl/CMakeFiles/oboskrnl.dir/descriptors/gdt/gdt.asm.o
                0x001001f0                gdtFlush
 *fill*         0x0010020d        0x3 
 .text          0x00100210        0x8 src/oboskrnl/CMakeFiles/oboskrnl.dir/descriptors/idt/idt.asm.o
                0x00100210                _ZN4obos8idtFlushEj
 *fill*         0x00100218        0x8 
 .text          0x00100220      0x1d8 src/oboskrnl/CMakeFiles/oboskrnl.dir/descriptors/idt/handlers.asm.o
                0x00100220                isr0
                0x0010022a                isr1
                0x00100234                isr2
                0x0010023e                isr3
                0x00100248                isr4
                0x00100252                isr5
                0x0010025c                isr6
                0x00100266                isr7
                0x00100270                isr8
                0x00100278                isr9
                0x00100282                isr10
                0x0010028a                isr11
                0x00100292                isr12
                0x0010029a                isr13
                0x001002a2                isr14
                0x001002aa                isr15
                0x001002b4                isr16
                0x001002be                isr17
                0x001002c8                isr18
                0x001002d2                isr19
                0x001002dc                isr20
                0x001002e6                isr21
                0x001002ee                isr22
                0x001002f8                isr23
                0x00100302                isr24
                0x0010030c                isr25
                0x00100316                isr26
                0x00100320                isr27
                0x0010032a                isr28
                0x00100334                isr29
                0x0010033c                isr30
                0x00100344                isr31
                0x0010034e                isr32
                0x00100358                isr33
                0x00100362                isr34
                0x0010036c                isr35
                0x00100376                isr36
                0x00100380                isr37
                0x0010038a                isr38
                0x00100394                isr39
                0x0010039e                isr40
                0x001003a8                isr41
                0x001003b2                isr42
                0x001003bc                isr43
                0x001003c6                isr44
                0x001003d0                isr45
                0x001003da                isr46
                0x001003e4                isr47
                0x001003ee                isr48
 *fill*         0x001003f8        0x8 
 .text          0x00100400       0x20 src/oboskrnl/CMakeFiles/oboskrnl.dir/memory_manager/paging/init.asm.o
                0x00100400                _ZN4obos6memory13PageDirectory15switchToThisAsmEj
                0x0010040c                _ZN4obos6memory19GetPageFaultAddressEv
                0x00100410                _ZN4obos6memory12enablePagingEv
 .text          0x00100420       0x35 src/oboskrnl/CMakeFiles/oboskrnl.dir/multitasking/multitasking.asm.o
                0x00100420                _ZN4obos12multitasking15switchToTaskAsmEv
 *fill*         0x00100455        0xb 
 .text          0x00100460       0x81 src/oboskrnl/CMakeFiles/oboskrnl.dir/utils/memcpy.asm.o
                0x00100460                _ZN4obos5utils6memcpyEPvPKvj
                0x0010047d                _ZN4obos5utils7memzeroEPvj
                0x00100495                _ZN4obos5utils8dwMemsetEPjjj
                0x001004b1                _ZN4obos5utils6memsetEPvjj
                0x001004cb                _ZN4obos5utils6strlenEPKc
 *fill*         0x001004e1        0x1 
 .text          0x001004e2      0x90f src/oboskrnl/CMakeFiles/oboskrnl.dir/boot/kmain.cpp.o
                0x001004e2                _ZnwmPv
                0x001004ea                _ZnamPv
                0x001004f2                _ZdlPvS_
                0x001004f8                _ZdaPvS_
                0x0010082e                _ZN4obos5kmainEP14multiboot_infoj
                0x00100a37                _ZN4obos10testThreadEPv
                0x00100a6f                _ZN4obos8kmainThrEv
                0x00100c26                __cxa_pure_virtual
                0x00100c3f                __cxa_atexit
                0x00100cb7                __cxa_finalize
 .text          0x00100df1      0x8bb src/oboskrnl/CMakeFiles/oboskrnl.dir/console.cpp.o
                0x0010103e                _ZN4obos17InitializeConsoleEjj
                0x001011c8                _ZN4obos9SetCursorEb
                0x001011d7                _ZN4obos15SetConsoleColorEjj
                0x001011ed                _ZN4obos15GetConsoleColorERjS0_
                0x00101427                _ZN4obos13ConsoleOutputEPKcjb
                0x001014ab                _ZN4obos19ConsoleOutputStringEPKcb
                0x00101536                _ZN4obos15ConsoleFillLineEcb
                0x001015bf                _ZN4obos22ConsoleOutputCharacterEcb
                0x00101628                _ZN4obos25SetTerminalCursorPositionEjj
                0x00101670                _ZN4obos11swapBuffersEv
 .text          0x001016ac      0x70f src/oboskrnl/CMakeFiles/oboskrnl.dir/klog.cpp.o
                0x00101767                _Z10strreversePci
                0x001017d7                _Z13itoa_unsignedjPci
                0x001018de                _ZN4obos8_vprintfEPFvhPvES0_PKcPc
                0x00101cc6                _ZN4obos6printfEPKcz
                0x00101cf1                _ZN4obos7vprintfEPKcPc
                0x00101d15                _ZN4obos6kpanicEPKcz
 .text          0x00101dbb      0x81a src/oboskrnl/CMakeFiles/oboskrnl.dir/inline-asm.cpp.o
                0x00101dbb                _Z4outbth
                0x00101ddc                _Z4outwtt
                0x00101dfd                _Z3inbt
                0x00101e1a                _Z3inwt
                0x00101e39                _Z7io_waitv
                0x00101e4e                _Z3cliv
                0x00101e62                _Z3stiv
                0x00101e76                _Z3hltv
                0x00101e7d                _Z4_inth
                0x00102535                _ZN4obos18EnterKernelSectionEv
                0x00102577                _ZN4obos18LeaveKernelSectionEv
 *fill*         0x001025d5        0x1 
 .text          0x001025d6      0x177 src/oboskrnl/CMakeFiles/oboskrnl.dir/descriptors/gdt/gdt.cpp.o
                0x001025d6                _ZN4obos8GdtEntryC2Ejjhh
                0x001025d6                _ZN4obos8GdtEntryC1Ejjhh
                0x0010264f                _ZN4obos13InitializeGdtEv
 *fill*         0x0010274d        0x1 
 .text          0x0010274e      0x9dc src/oboskrnl/CMakeFiles/oboskrnl.dir/descriptors/idt/idt.cpp.o
                0x0010274e                _ZN4obos8IdtEntryC2Ejth
                0x0010274e                _ZN4obos8IdtEntryC1Ejth
                0x001027a1                _ZN4obos13InitializeIdtEv
                0x0010310d                _ZN4obos24RegisterInterruptHandlerEhPFvPKNS_15interrupt_frameEE
 .text          0x0010312a      0x69b src/oboskrnl/CMakeFiles/oboskrnl.dir/memory_manager/physical.cpp.o
                0x00103210                _ZN4obos6memory31InitializePhysicalMemoryManagerEv
                0x00103445                _ZN4obos6memory20kalloc_physicalPagesEj
                0x00103692                _ZN4obos6memory19kfree_physicalPagesEPvj
 *fill*         0x001037c5        0x1 
 .text          0x001037c6      0x2c2 src/oboskrnl/CMakeFiles/oboskrnl.dir/utils/bitfields.cpp.o
                0x001037e4                _ZN4obos5utils12BitfieldBaseC2Ev
                0x001037e4                _ZN4obos5utils12BitfieldBaseC1Ev
                0x001037fe                _ZN4obos5utils12BitfieldBase6setBitEj
                0x00103816                _ZN4obos5utils12BitfieldBase8clearBitEj
                0x00103830                _ZNK4obos5utils12BitfieldBase6getBitEj
                0x00103844                _ZNK4obos5utils12BitfieldBaseixEj
                0x00103864                _ZN4obos5utils12BitfieldBasecvjEv
                0x00103870                _ZN4obos5utils12BitfieldBasecvbEv
                0x00103882                _ZN4obos5utils8BitfieldC2Ev
                0x00103882                _ZN4obos5utils8BitfieldC1Ev
                0x0010389e                _ZN4obos5utils8Bitfield6setBitEh
                0x001038d4                _ZN4obos5utils8Bitfield8clearBitEh
                0x0010390a                _ZNK4obos5utils8Bitfield6getBitEh
                0x00103956                _ZNK4obos5utils8BitfieldixEh
                0x0010397e                _ZN4obos5utils8BitfieldcvbEv
                0x00103990                _ZN4obos5utils15IntegerBitfieldC2Ev
                0x00103990                _ZN4obos5utils15IntegerBitfieldC1Ev
                0x001039ac                _ZN4obos5utils15IntegerBitfieldC2Ej
                0x001039ac                _ZN4obos5utils15IntegerBitfieldC1Ej
                0x001039d2                _ZN4obos5utils15IntegerBitfield11setBitfieldEj
                0x001039e1                _ZN4obos5utils16setBitInBitfieldERjh
                0x00103a0f                _ZN4obos5utils18clearBitInBitfieldERjh
                0x00103a3f                _ZN4obos5utils17testBitInBitfieldEjh
 .text          0x00103a88      0x471 src/oboskrnl/CMakeFiles/oboskrnl.dir/descriptors/idt/pic.cpp.o
                0x00103a88                _ZN4obos3PicC2Ett
                0x00103a88                _ZN4obos3PicC1Ett
                0x00103ad0                _ZN4obos3Pic8setPortsEtt
                0x00103b04                _ZN4obos3Pic15sendCommandByteEh
                0x00103b42                _ZN4obos3Pic15sendCommandWordEt
                0x00103b82                _ZN4obos3Pic12sendDataByteEh
                0x00103bc2                _ZN4obos3Pic12sendDataWordEt
                0x00103c02                _ZN4obos3Pic15recvCommandByteEv
                0x00103c36                _ZN4obos3Pic15recvCommandWordEv
                0x00103c6a                _ZN4obos3Pic12recvDataByteEv
                0x00103c9e                _ZN4obos3Pic12recvDataWordEv
                0x00103cd2                _ZN4obos3Pic7sendEOIEv
                0x00103cec                _ZN4obos3Pic5remapEhh
                0x00103d48                _ZN4obos3Pic9enableIrqEh
                0x00103d94                _ZN4obos3Pic10disableIrqEh
                0x00103de0                _ZN4obos3Pic7disableEv
                0x00103dfc                _ZN4obos3Pic15issuedInterruptEh
                0x00103e4a                _ZN4obos7SendEOIEj
 *fill*         0x00103ef9        0x1 
 .text          0x00103efa      0x34f src/oboskrnl/CMakeFiles/oboskrnl.dir/memory_manager/paging/init.cpp.o
                0x00103efa                _ZN4obos6memory13PageDirectoryC2Ev
                0x00103efa                _ZN4obos6memory13PageDirectoryC1Ev
                0x00103f28                _ZN4obos6memory13PageDirectoryC1EPj
                0x00103f28                _ZN4obos6memory13PageDirectoryC2EPj
                0x00103f54                _ZN4obos6memory13PageDirectory4initEv
                0x00103f9c                _ZN4obos6memory13PageDirectory12switchToThisEv
                0x00103fc6                _ZN4obos6memory13PageDirectory19getPageTableAddressEt
                0x00104000                _ZN4obos6memory13PageDirectory12getPageTableEt
                0x00104042                _ZN4obos6memory13PageDirectory7destroyEv
                0x001040a8                _ZN4obos6memory13PageDirectoryD1Ev
                0x001040a8                _ZN4obos6memory13PageDirectoryD2Ev
                0x001040c0                _ZN4obos6memory13PageDirectory14addressToIndexEj
                0x001040cc                _ZN4obos6memory13PageDirectory23addressToPageTableIndexEj
                0x001040db                _ZN4obos6memory16InitializePagingEv
 .text          0x00104249      0x7f8 src/oboskrnl/CMakeFiles/oboskrnl.dir/memory_manager/paging/allocate.cpp.o
                0x00104249                _ZN4obos6memory14kmap_pageTableEPv
                0x00104287                _ZN4obos6memory15kfree_pageTableEv
                0x001042b6                _ZN4obos6memory13kmap_physicalEPvjjS1_b
                0x00104497                _ZN4obos6memory12VirtualAllocEPvjj
                0x00104752                _ZN4obos6memory11VirtualFreeEPvj
                0x00104957                _ZN4obos6memory17HasVirtualAddressEPKvj
 .text          0x00104a41      0x14f src/oboskrnl/CMakeFiles/oboskrnl.dir/utils/memory.cpp.o
                0x00104a41                _ZN4obos5utils6memcmpEPKvS2_j
                0x00104b06                _ZN4obos5utils6memchrEPvhj
                0x00104b6c                _ZN4obos5utils6memchrEPKvhj
 .text          0x00104b90      0x123 src/oboskrnl/CMakeFiles/oboskrnl.dir/memory_manager/paging/liballoc_hooks.cpp.o
                0x00104b90                liballoc_lock
                0x00104ba2                liballoc_unlock
                0x00104bb4                liballoc_alloc
                0x00104c01                liballoc_free
                0x00104c27                _Znwm
                0x00104c3f                _Znam
                0x00104c57                _ZdlPv
                0x00104c6e                _ZdaPv
                0x00104c85                _ZdlPvm
                0x00104c9c                _ZdaPvm
 .text          0x00104cb3      0xc1d src/oboskrnl/CMakeFiles/oboskrnl.dir/memory_manager/liballoc/liballoc.c.o
                0x00104e59                kmalloc
                0x001054e5                kfree
                0x00105742                kcalloc
                0x0010577d                krealloc
 .text          0x001058d0       0xbb src/oboskrnl/CMakeFiles/oboskrnl.dir/external/list/list_iterator.c.o
                0x001058d0                list_iterator_new
                0x001058ff                list_iterator_new_from_node
                0x00105938                list_iterator_next
                0x0010596d                list_iterator_destroy
 .text          0x0010598b       0x44 src/oboskrnl/CMakeFiles/oboskrnl.dir/external/list/list_node.c.o
                0x0010598b                list_node_new
 .text          0x001059cf      0x48d src/oboskrnl/CMakeFiles/oboskrnl.dir/external/list/list.c.o
                0x001059cf                list_new
                0x00105a28                list_destroy
                0x00105a9b                list_rpush
                0x00105b1e                list_rpop
                0x00105b9e                list_lpop
                0x00105c1c                list_lpush
                0x00105c9b                list_find
                0x00105d39                list_at
                0x00105dcf                list_remove
 .text          0x00105e5c      0x537 src/oboskrnl/CMakeFiles/oboskrnl.dir/multitasking/multitasking.cpp.o
                0x00105e5c                _ZN4obos12multitasking10canRanTaskEPNS0_6ThreadE
                0x00105e88                _ZN4obos12multitasking12switchToTaskEPNS0_6ThreadE
                0x00105ea8                _ZN4obos12multitasking11findNewTaskEPKNS_15interrupt_frameE
                0x001061c9                _ZN4obos12multitasking22InitializeMultitaskingEv
 .text          0x00106393        0x0 src/oboskrnl/CMakeFiles/oboskrnl.dir/multitasking/threadHandle.cpp.o
 *fill*         0x00106393        0x1 
 .text          0x00106394      0x1e6 src/oboskrnl/CMakeFiles/oboskrnl.dir/multitasking/thread.cpp.o
                0x00106394                _ZN4obos12multitasking6ThreadC2ENS1_10priority_tEPFvPvES3_jj
                0x00106394                _ZN4obos12multitasking6ThreadC1ENS1_10priority_tEPFvPvES3_jj
                0x00106400                _ZN4obos12multitasking6Thread12CreateThreadENS1_10priority_tEPFvPvES3_jj
 .text          0x0010657a      0x11f src/oboskrnl/CMakeFiles/oboskrnl.dir/multitasking/mutex/mutex.cpp.o
                0x0010657a                _ZN4obos12multitasking17MutexLockCallbackEPNS0_6ThreadEPv
                0x001065ac                _ZN4obos12multitasking5Mutex4LockEb
                0x00106640                _ZN4obos12multitasking5Mutex6UnlockEv
                0x00106678                _ZN4obos12multitasking5MutexD2Ev
                0x00106678                _ZN4obos12multitasking5MutexD1Ev
 *fill*         0x00106699        0x1 
 .text          0x0010669a      0x1ae src/oboskrnl/CMakeFiles/oboskrnl.dir/multitasking/mutex/mutexHandle.cpp.o
                0x0010669a                _ZN4obos12multitasking11MutexHandleC2Ev
                0x0010669a                _ZN4obos12multitasking11MutexHandleC1Ev
                0x00106702                _ZN4obos12multitasking11MutexHandle9duplicateEv
                0x0010673a                _ZN4obos12multitasking11MutexHandle11closeHandleEv
                0x0010678e                _ZN4obos12multitasking11MutexHandle4LockEb
                0x001067c6                _ZN4obos12multitasking11MutexHandle6UnlockEv
                0x001067f2                _ZN4obos12multitasking11MutexHandleD2Ev
                0x001067f2                _ZN4obos12multitasking11MutexHandleD1Ev
                0x00106822                _ZN4obos12multitasking11MutexHandleD0Ev
                0x00106848                        _ZN4obos6memory7__etextE = .

.init           0x00106848        0xf
 .init          0x00106848        0x3 /tmp/ccVjbtzD.o
                0x00106848                _init
 .init          0x0010684b        0x5 /home/omar/opt/cross/lib/gcc/i686-elf/11.4.0/crtbegin.o
 .init          0x00106850        0x5 /home/omar/opt/cross/lib/gcc/i686-elf/11.4.0/crtend.o
 .init          0x00106855        0x2 /tmp/ccrgPVSL.o

.fini           0x00106857        0xa
 .fini          0x00106857        0x3 /tmp/ccVjbtzD.o
                0x00106857                _fini
 .fini          0x0010685a        0x5 /home/omar/opt/cross/lib/gcc/i686-elf/11.4.0/crtbegin.o
 .fini          0x0010685f        0x2 /tmp/ccrgPVSL.o

.iplt           0x00106861        0x0
 .iplt          0x00106861        0x0 /tmp/ccVjbtzD.o

.gnu.linkonce.t._ZN4obos12multitasking6ThreadD1Ev
                0x00106862       0x39
 .gnu.linkonce.t._ZN4obos12multitasking6ThreadD1Ev
                0x00106862       0x39 src/oboskrnl/CMakeFiles/oboskrnl.dir/boot/kmain.cpp.o
                0x00106862                _ZN4obos12multitasking6ThreadD1Ev

.gnu.linkonce.t._ZN4obos12multitasking6ThreadD0Ev
                0x0010689c       0x26
 .gnu.linkonce.t._ZN4obos12multitasking6ThreadD0Ev
                0x0010689c       0x26 src/oboskrnl/CMakeFiles/oboskrnl.dir/boot/kmain.cpp.o
                0x0010689c                _ZN4obos12multitasking6ThreadD0Ev

.gnu.linkonce.t._ZN4obos12multitasking6ThreadC1Ev
                0x001068c2       0x4c
 .gnu.linkonce.t._ZN4obos12multitasking6ThreadC1Ev
                0x001068c2       0x4c src/oboskrnl/CMakeFiles/oboskrnl.dir/multitasking/multitasking.cpp.o
                0x001068c2                _ZN4obos12multitasking6ThreadC1Ev

.gnu.linkonce.t._ZN4obos6Handle13getReferencesEv
                0x0010690e        0xe
 .gnu.linkonce.t._ZN4obos6Handle13getReferencesEv
                0x0010690e        0xe src/oboskrnl/CMakeFiles/oboskrnl.dir/multitasking/mutex/mutexHandle.cpp.o
                0x0010690e                _ZN4obos6Handle13getReferencesEv

.gnu.linkonce.t._ZN4obos6HandleD2Ev
                0x0010691c       0x10
 .gnu.linkonce.t._ZN4obos6HandleD2Ev
                0x0010691c       0x10 src/oboskrnl/CMakeFiles/oboskrnl.dir/multitasking/mutex/mutexHandle.cpp.o
                0x0010691c                _ZN4obos6HandleD2Ev

.gnu.linkonce.t._ZN4obos6HandleC2Ev
                0x0010692c       0x1a
 .gnu.linkonce.t._ZN4obos6HandleC2Ev
                0x0010692c       0x1a src/oboskrnl/CMakeFiles/oboskrnl.dir/multitasking/mutex/mutexHandle.cpp.o
                0x0010692c                _ZN4obos6HandleC2Ev

.gnu.linkonce.t._ZN4obos12multitasking5MutexC1Ev
                0x00106946       0x1d
 .gnu.linkonce.t._ZN4obos12multitasking5MutexC1Ev
                0x00106946       0x1d src/oboskrnl/CMakeFiles/oboskrnl.dir/multitasking/mutex/mutexHandle.cpp.o
                0x00106946                _ZN4obos12multitasking5MutexC1Ev

.rodata         0x00107000      0xaed
 *(.rodata)
 .rodata        0x00107000      0x4c6 src/oboskrnl/CMakeFiles/oboskrnl.dir/boot/kmain.cpp.o
 *fill*         0x001074c6        0x2 
 .rodata        0x001074c8       0x8c src/oboskrnl/CMakeFiles/oboskrnl.dir/console.cpp.o
 .rodata        0x00107554       0xe0 src/oboskrnl/CMakeFiles/oboskrnl.dir/klog.cpp.o
 .rodata        0x00107634      0x400 src/oboskrnl/CMakeFiles/oboskrnl.dir/inline-asm.cpp.o
 .rodata        0x00107a34       0x2b src/oboskrnl/CMakeFiles/oboskrnl.dir/memory_manager/physical.cpp.o
 *fill*         0x00107a5f        0x1 
 .rodata        0x00107a60        0x8 src/oboskrnl/CMakeFiles/oboskrnl.dir/memory_manager/paging/init.cpp.o
 .rodata        0x00107a68        0x8 src/oboskrnl/CMakeFiles/oboskrnl.dir/memory_manager/paging/allocate.cpp.o
 .rodata        0x00107a70       0x3d src/oboskrnl/CMakeFiles/oboskrnl.dir/multitasking/multitasking.cpp.o
 *fill*         0x00107aad        0x3 
 .rodata        0x00107ab0       0x3d src/oboskrnl/CMakeFiles/oboskrnl.dir/multitasking/thread.cpp.o
                0x00107aed                        _ZN4obos6memory9__erodataE = .

.eh_frame       0x00107af0        0x4
 .eh_frame      0x00107af0        0x0 /home/omar/opt/cross/lib/gcc/i686-elf/11.4.0/crtbegin.o
 .eh_frame      0x00107af0        0x4 /home/omar/opt/cross/lib/gcc/i686-elf/11.4.0/crtend.o

data            0x00107af4      0x400
 data           0x00107af4      0x400 src/oboskrnl/CMakeFiles/oboskrnl.dir/descriptors/idt/handlers.asm.o
                0x00107af4                _ZN4obos19g_interruptHandlersE

text            0x00107ef4       0x2c
 text           0x00107ef4       0x2c src/oboskrnl/CMakeFiles/oboskrnl.dir/descriptors/idt/handlers.asm.o
                0x00107ef4                isr_common_stub

.gnu.linkonce.r._ZTVN4obos12multitasking6ThreadE
                0x00107f20       0x10
 .gnu.linkonce.r._ZTVN4obos12multitasking6ThreadE
                0x00107f20       0x10 src/oboskrnl/CMakeFiles/oboskrnl.dir/boot/kmain.cpp.o
                0x00107f20                _ZTVN4obos12multitasking6ThreadE

.gnu.linkonce.r._ZTVN4obos5utils8BitfieldE
                0x00107f30       0x30
 .gnu.linkonce.r._ZTVN4obos5utils8BitfieldE
                0x00107f30       0x30 src/oboskrnl/CMakeFiles/oboskrnl.dir/utils/bitfields.cpp.o
                0x00107f30                _ZTVN4obos5utils8BitfieldE

.gnu.linkonce.r._ZTVN4obos5utils12BitfieldBaseE
                0x00107f60       0x20
 .gnu.linkonce.r._ZTVN4obos5utils12BitfieldBaseE
                0x00107f60       0x20 src/oboskrnl/CMakeFiles/oboskrnl.dir/utils/bitfields.cpp.o
                0x00107f60                _ZTVN4obos5utils12BitfieldBaseE

.gnu.linkonce.r._ZTVN4obos5utils15IntegerBitfieldE
                0x00107f80       0x30
 .gnu.linkonce.r._ZTVN4obos5utils15IntegerBitfieldE
                0x00107f80       0x30 src/oboskrnl/CMakeFiles/oboskrnl.dir/utils/bitfields.cpp.o
                0x00107f80                _ZTVN4obos5utils15IntegerBitfieldE

.gnu.linkonce.r._ZTVN4obos12multitasking11MutexHandleE
                0x00107fb0       0x18
 .gnu.linkonce.r._ZTVN4obos12multitasking11MutexHandleE
                0x00107fb0       0x18 src/oboskrnl/CMakeFiles/oboskrnl.dir/multitasking/mutex/mutexHandle.cpp.o
                0x00107fb0                _ZTVN4obos12multitasking11MutexHandleE

.gnu.linkonce.r._ZTVN4obos6HandleE
                0x00107fc8       0x18
 .gnu.linkonce.r._ZTVN4obos6HandleE
                0x00107fc8       0x18 src/oboskrnl/CMakeFiles/oboskrnl.dir/multitasking/mutex/mutexHandle.cpp.o
                0x00107fc8                _ZTVN4obos6HandleE

.rel.dyn        0x00107fe0        0x0
 .rel.got       0x00107fe0        0x0 /tmp/ccVjbtzD.o
 .rel.iplt      0x00107fe0        0x0 /tmp/ccVjbtzD.o
 .rel.text      0x00107fe0        0x0 /tmp/ccVjbtzD.o
 .rel.gnu.linkonce.t._ZN4obos12multitasking6ThreadD1Ev
                0x00107fe0        0x0 /tmp/ccVjbtzD.o
 .rel.gnu.linkonce.t._ZN4obos12multitasking6ThreadD0Ev
                0x00107fe0        0x0 /tmp/ccVjbtzD.o
 .rel.gnu.linkonce.r._ZTVN4obos12multitasking6ThreadE
                0x00107fe0        0x0 /tmp/ccVjbtzD.o
 .rel.gnu.linkonce.t._ZN4obos12multitasking6ThreadC1Ev
                0x00107fe0        0x0 /tmp/ccVjbtzD.o
 .rel.gnu.linkonce.t._ZN4obos6HandleD2Ev
                0x00107fe0        0x0 /tmp/ccVjbtzD.o
 .rel.gnu.linkonce.t._ZN4obos6HandleC2Ev
                0x00107fe0        0x0 /tmp/ccVjbtzD.o

.data           0x00108000       0x20
 *(.data)
 .data          0x00108000        0x0 /tmp/ccVjbtzD.o
 .data          0x00108000        0x4 /home/omar/opt/cross/lib/gcc/i686-elf/11.4.0/crtbegin.o
                0x00108000                __dso_handle
 .data          0x00108004        0x0 /home/omar/opt/cross/lib/gcc/i686-elf/11.4.0/crtend.o
 .data          0x00108004        0x0 /tmp/ccrgPVSL.o
 .data          0x00108004        0x8 src/oboskrnl/CMakeFiles/oboskrnl.dir/multitasking/multitasking.asm.o
 .data          0x0010800c        0x0 src/oboskrnl/CMakeFiles/oboskrnl.dir/boot/kmain.cpp.o
 .data          0x0010800c        0x0 src/oboskrnl/CMakeFiles/oboskrnl.dir/console.cpp.o
 .data          0x0010800c        0x4 src/oboskrnl/CMakeFiles/oboskrnl.dir/klog.cpp.o
 .data          0x00108010        0x0 src/oboskrnl/CMakeFiles/oboskrnl.dir/inline-asm.cpp.o
 .data          0x00108010        0x0 src/oboskrnl/CMakeFiles/oboskrnl.dir/descriptors/gdt/gdt.cpp.o
 .data          0x00108010        0x0 src/oboskrnl/CMakeFiles/oboskrnl.dir/descriptors/idt/idt.cpp.o
 .data          0x00108010        0x4 src/oboskrnl/CMakeFiles/oboskrnl.dir/memory_manager/physical.cpp.o
 .data          0x00108014        0x0 src/oboskrnl/CMakeFiles/oboskrnl.dir/utils/bitfields.cpp.o
 .data          0x00108014        0x0 src/oboskrnl/CMakeFiles/oboskrnl.dir/descriptors/idt/pic.cpp.o
 .data          0x00108014        0x0 src/oboskrnl/CMakeFiles/oboskrnl.dir/memory_manager/paging/init.cpp.o
 .data          0x00108014        0x0 src/oboskrnl/CMakeFiles/oboskrnl.dir/memory_manager/paging/allocate.cpp.o
 .data          0x00108014        0x0 src/oboskrnl/CMakeFiles/oboskrnl.dir/utils/memory.cpp.o
 .data          0x00108014        0x0 src/oboskrnl/CMakeFiles/oboskrnl.dir/memory_manager/paging/liballoc_hooks.cpp.o
 .data          0x00108014        0x8 src/oboskrnl/CMakeFiles/oboskrnl.dir/memory_manager/liballoc/liballoc.c.o
 .data          0x0010801c        0x0 src/oboskrnl/CMakeFiles/oboskrnl.dir/external/list/list_iterator.c.o
 .data          0x0010801c        0x0 src/oboskrnl/CMakeFiles/oboskrnl.dir/external/list/list_node.c.o
 .data          0x0010801c        0x0 src/oboskrnl/CMakeFiles/oboskrnl.dir/external/list/list.c.o
 .data          0x0010801c        0x0 src/oboskrnl/CMakeFiles/oboskrnl.dir/multitasking/multitasking.cpp.o
 .data          0x0010801c        0x0 src/oboskrnl/CMakeFiles/oboskrnl.dir/multitasking/threadHandle.cpp.o
 .data          0x0010801c        0x4 src/oboskrnl/CMakeFiles/oboskrnl.dir/multitasking/thread.cpp.o
                0x0010801c                _ZN4obos12multitasking15g_nextThreadTidE
 .data          0x00108020        0x0 src/oboskrnl/CMakeFiles/oboskrnl.dir/multitasking/mutex/mutex.cpp.o
 .data          0x00108020        0x0 src/oboskrnl/CMakeFiles/oboskrnl.dir/multitasking/mutex/mutexHandle.cpp.o

.got            0x00108020        0x0
 .got           0x00108020        0x0 /tmp/ccVjbtzD.o

.got.plt        0x00108020        0x0
 .got.plt       0x00108020        0x0 /tmp/ccVjbtzD.o

.igot.plt       0x00108020        0x0
 .igot.plt      0x00108020        0x0 /tmp/ccVjbtzD.o

.ctors          0x00108020        0xc
 .ctors         0x00108020        0x4 /home/omar/opt/cross/lib/gcc/i686-elf/11.4.0/crtbegin.o
 .ctors         0x00108024        0x4 /home/omar/opt/cross/lib/gcc/i686-elf/11.4.0/crtend.o
 .ctors         0x00108028        0x4 src/oboskrnl/CMakeFiles/oboskrnl.dir/boot/kmain.cpp.o

.dtors          0x0010802c        0x8
 .dtors         0x0010802c        0x4 /home/omar/opt/cross/lib/gcc/i686-elf/11.4.0/crtbegin.o
 .dtors         0x00108030        0x4 /home/omar/opt/cross/lib/gcc/i686-elf/11.4.0/crtend.o
                0x00108030                __DTOR_END__

.tm_clone_table
                0x00108034        0x0
 .tm_clone_table
                0x00108034        0x0 /home/omar/opt/cross/lib/gcc/i686-elf/11.4.0/crtbegin.o
 .tm_clone_table
                0x00108034        0x0 /home/omar/opt/cross/lib/gcc/i686-elf/11.4.0/crtend.o

.bss            0x00109000    0x2d051
 *(COMMON)
 *(.bss)
 .bss           0x00109000        0x0 /tmp/ccVjbtzD.o
 .bss           0x00109000       0x20 /home/omar/opt/cross/lib/gcc/i686-elf/11.4.0/crtbegin.o
 .bss           0x00109020        0x0 /home/omar/opt/cross/lib/gcc/i686-elf/11.4.0/crtend.o
 .bss           0x00109020        0x0 /tmp/ccrgPVSL.o
 .bss           0x00109020     0x8000 src/oboskrnl/CMakeFiles/oboskrnl.dir/boot/kernel_bootstrap-i686.asm.o
                0x00109020                _ZN4obos12stack_bottomE
                0x0010d020                _ZN4obos9stack_topE
                0x0010d020                _ZN4obos15thrstack_bottomE
                0x00111020                _ZN4obos12thrstack_topE
 .bss           0x00111020      0xc24 src/oboskrnl/CMakeFiles/oboskrnl.dir/boot/kmain.cpp.o
                0x00111020                _ZN4obos15g_multibootInfoE
                0x00111024                _ZN4obos15g_pageDirectoryE
                0x00111040                __atexitFuncs
                0x00111c40                __atexitFuncCount
 .bss           0x00111c44       0x34 src/oboskrnl/CMakeFiles/oboskrnl.dir/console.cpp.o
                0x00111c44                _ZN4obos17s_foregroundColorE
                0x00111c48                _ZN4obos17s_backgroundColorE
                0x00111c4c                _ZN4obos16s_terminalColumnE
                0x00111c50                _ZN4obos13s_terminalRowE
                0x00111c54                _ZN4obos20s_reachedEndTerminalE
                0x00111c58                _ZN4obos13s_framebufferE
                0x00111c5c                _ZN4obos12s_backbufferE
                0x00111c60                _ZN4obos18s_framebufferWidthE
                0x00111c64                _ZN4obos19s_framebufferHeightE
                0x00111c68                _ZN4obos16s_nCharsVerticalE
                0x00111c6c                _ZN4obos18s_nCharsHorizontalE
                0x00111c70                _ZN4obos4fontE
 .bss           0x00111c78        0x0 src/oboskrnl/CMakeFiles/oboskrnl.dir/klog.cpp.o
 .bss           0x00111c78        0x8 src/oboskrnl/CMakeFiles/oboskrnl.dir/inline-asm.cpp.o
 .bss           0x00111c80       0x48 src/oboskrnl/CMakeFiles/oboskrnl.dir/descriptors/gdt/gdt.cpp.o
 *fill*         0x00111cc8       0x18 
 .bss           0x00111ce0      0x806 src/oboskrnl/CMakeFiles/oboskrnl.dir/descriptors/idt/idt.cpp.o
 *fill*         0x001124e6       0x1a 
 .bss           0x00112500    0x2000c src/oboskrnl/CMakeFiles/oboskrnl.dir/memory_manager/physical.cpp.o
                0x00112500                _ZN4obos6memory16g_availablePagesE
                0x00132500                _ZN4obos6memory20g_physicalMemorySizeE
                0x00132504                _ZN4obos6memory34g_physicalMemoryManagerInitializedE
 .bss           0x0013250c        0x0 src/oboskrnl/CMakeFiles/oboskrnl.dir/utils/bitfields.cpp.o
 .bss           0x0013250c        0x0 src/oboskrnl/CMakeFiles/oboskrnl.dir/descriptors/idt/pic.cpp.o
 *fill*         0x0013250c      0xaf4 
 .bss           0x00133000     0x2000 src/oboskrnl/CMakeFiles/oboskrnl.dir/memory_manager/paging/init.cpp.o
                0x00133000                _ZN4obos6memory15g_enabledPagingE
                0x00133004                _ZN4obos6memory15g_pageDirectoryE
                0x00134000                _ZN4obos6memory21g_kernelPageDirectoryE
 .bss           0x00135000     0x1000 src/oboskrnl/CMakeFiles/oboskrnl.dir/memory_manager/paging/allocate.cpp.o
                0x00135000                _ZN4obos6memory15s_lastPageTableE
 .bss           0x00136000        0x0 src/oboskrnl/CMakeFiles/oboskrnl.dir/utils/memory.cpp.o
 .bss           0x00136000        0x4 src/oboskrnl/CMakeFiles/oboskrnl.dir/memory_manager/paging/liballoc_hooks.cpp.o
 *fill*         0x00136004        0x4 
 .bss           0x00136008       0x30 src/oboskrnl/CMakeFiles/oboskrnl.dir/memory_manager/liballoc/liballoc.c.o
 .bss           0x00136038        0x0 src/oboskrnl/CMakeFiles/oboskrnl.dir/external/list/list_iterator.c.o
 .bss           0x00136038        0x0 src/oboskrnl/CMakeFiles/oboskrnl.dir/external/list/list_node.c.o
 .bss           0x00136038        0x0 src/oboskrnl/CMakeFiles/oboskrnl.dir/external/list/list.c.o
 .bss           0x00136038       0x19 src/oboskrnl/CMakeFiles/oboskrnl.dir/multitasking/multitasking.cpp.o
                0x00136038                _ZN4obos12multitasking9g_threadsE
                0x0013603c                _ZN4obos12multitasking20g_threadPriorityListE
                0x0013604c                _ZN4obos12multitasking15g_currentThreadE
                0x00136050                _ZN4obos12multitasking13g_initializedE
 .bss           0x00136051        0x0 src/oboskrnl/CMakeFiles/oboskrnl.dir/multitasking/threadHandle.cpp.o
 .bss           0x00136051        0x0 src/oboskrnl/CMakeFiles/oboskrnl.dir/multitasking/thread.cpp.o
 .bss           0x00136051        0x0 src/oboskrnl/CMakeFiles/oboskrnl.dir/multitasking/mutex/mutex.cpp.o
 .bss           0x00136051        0x0 src/oboskrnl/CMakeFiles/oboskrnl.dir/multitasking/mutex/mutexHandle.cpp.o
                0x00800000                        _ZN4obos6memory8endImageE = 0x800000
                0x01100000                        _ZN4obos6memory9endKernelE = 0x1100000
OUTPUT(/mnt/c/Code/obos/out/oboskrnl elf32-i386)

.comment        0x00000000       0x12
 .comment       0x00000000       0x12 /home/omar/opt/cross/lib/gcc/i686-elf/11.4.0/crtbegin.o
                                 0x13 (size before relaxing)
 .comment       0x00000012       0x13 /home/omar/opt/cross/lib/gcc/i686-elf/11.4.0/crtend.o
 .comment       0x00000012       0x13 src/oboskrnl/CMakeFiles/oboskrnl.dir/boot/kmain.cpp.o
 .comment       0x00000012       0x13 src/oboskrnl/CMakeFiles/oboskrnl.dir/console.cpp.o
 .comment       0x00000012       0x13 src/oboskrnl/CMakeFiles/oboskrnl.dir/klog.cpp.o
 .comment       0x00000012       0x13 src/oboskrnl/CMakeFiles/oboskrnl.dir/inline-asm.cpp.o
 .comment       0x00000012       0x13 src/oboskrnl/CMakeFiles/oboskrnl.dir/descriptors/gdt/gdt.cpp.o
 .comment       0x00000012       0x13 src/oboskrnl/CMakeFiles/oboskrnl.dir/descriptors/idt/idt.cpp.o
 .comment       0x00000012       0x13 src/oboskrnl/CMakeFiles/oboskrnl.dir/memory_manager/physical.cpp.o
 .comment       0x00000012       0x13 src/oboskrnl/CMakeFiles/oboskrnl.dir/utils/bitfields.cpp.o
 .comment       0x00000012       0x13 src/oboskrnl/CMakeFiles/oboskrnl.dir/descriptors/idt/pic.cpp.o
 .comment       0x00000012       0x13 src/oboskrnl/CMakeFiles/oboskrnl.dir/memory_manager/paging/init.cpp.o
 .comment       0x00000012       0x13 src/oboskrnl/CMakeFiles/oboskrnl.dir/memory_manager/paging/allocate.cpp.o
 .comment       0x00000012       0x13 src/oboskrnl/CMakeFiles/oboskrnl.dir/utils/memory.cpp.o
 .comment       0x00000012       0x13 src/oboskrnl/CMakeFiles/oboskrnl.dir/memory_manager/paging/liballoc_hooks.cpp.o
 .comment       0x00000012       0x13 src/oboskrnl/CMakeFiles/oboskrnl.dir/memory_manager/liballoc/liballoc.c.o
 .comment       0x00000012       0x13 src/oboskrnl/CMakeFiles/oboskrnl.dir/external/list/list_iterator.c.o
 .comment       0x00000012       0x13 src/oboskrnl/CMakeFiles/oboskrnl.dir/external/list/list_node.c.o
 .comment       0x00000012       0x13 src/oboskrnl/CMakeFiles/oboskrnl.dir/external/list/list.c.o
 .comment       0x00000012       0x13 src/oboskrnl/CMakeFiles/oboskrnl.dir/multitasking/multitasking.cpp.o
 .comment       0x00000012       0x13 src/oboskrnl/CMakeFiles/oboskrnl.dir/multitasking/threadHandle.cpp.o
 .comment       0x00000012       0x13 src/oboskrnl/CMakeFiles/oboskrnl.dir/multitasking/thread.cpp.o
 .comment       0x00000012       0x13 src/oboskrnl/CMakeFiles/oboskrnl.dir/multitasking/mutex/mutex.cpp.o
 .comment       0x00000012       0x13 src/oboskrnl/CMakeFiles/oboskrnl.dir/multitasking/mutex/mutexHandle.cpp.o

.debug_aranges  0x00000000      0x3d8
 .debug_aranges
                0x00000000       0x20 src/oboskrnl/CMakeFiles/oboskrnl.dir/boot/kernel_bootstrap-i686.asm.o
 .debug_aranges
                0x00000020       0x20 src/oboskrnl/CMakeFiles/oboskrnl.dir/descriptors/gdt/gdt.asm.o
 .debug_aranges
                0x00000040       0x20 src/oboskrnl/CMakeFiles/oboskrnl.dir/descriptors/idt/idt.asm.o
 .debug_aranges
                0x00000060       0x20 src/oboskrnl/CMakeFiles/oboskrnl.dir/descriptors/idt/handlers.asm.o
 .debug_aranges
                0x00000080       0x20 src/oboskrnl/CMakeFiles/oboskrnl.dir/memory_manager/paging/init.asm.o
 .debug_aranges
                0x000000a0       0x20 src/oboskrnl/CMakeFiles/oboskrnl.dir/multitasking/multitasking.asm.o
 .debug_aranges
                0x000000c0       0x20 src/oboskrnl/CMakeFiles/oboskrnl.dir/utils/memcpy.asm.o
 .debug_aranges
                0x000000e0       0x30 src/oboskrnl/CMakeFiles/oboskrnl.dir/boot/kmain.cpp.o
 .debug_aranges
                0x00000110       0x20 src/oboskrnl/CMakeFiles/oboskrnl.dir/console.cpp.o
 .debug_aranges
                0x00000130       0x20 src/oboskrnl/CMakeFiles/oboskrnl.dir/klog.cpp.o
 .debug_aranges
                0x00000150       0x20 src/oboskrnl/CMakeFiles/oboskrnl.dir/inline-asm.cpp.o
 .debug_aranges
                0x00000170       0x20 src/oboskrnl/CMakeFiles/oboskrnl.dir/descriptors/gdt/gdt.cpp.o
 .debug_aranges
                0x00000190       0x20 src/oboskrnl/CMakeFiles/oboskrnl.dir/descriptors/idt/idt.cpp.o
 .debug_aranges
                0x000001b0       0x20 src/oboskrnl/CMakeFiles/oboskrnl.dir/memory_manager/physical.cpp.o
 .debug_aranges
                0x000001d0       0x20 src/oboskrnl/CMakeFiles/oboskrnl.dir/utils/bitfields.cpp.o
 .debug_aranges
                0x000001f0       0x20 src/oboskrnl/CMakeFiles/oboskrnl.dir/descriptors/idt/pic.cpp.o
 .debug_aranges
                0x00000210       0x20 src/oboskrnl/CMakeFiles/oboskrnl.dir/memory_manager/paging/init.cpp.o
 .debug_aranges
                0x00000230       0x20 src/oboskrnl/CMakeFiles/oboskrnl.dir/memory_manager/paging/allocate.cpp.o
 .debug_aranges
                0x00000250       0x20 src/oboskrnl/CMakeFiles/oboskrnl.dir/utils/memory.cpp.o
 .debug_aranges
                0x00000270       0x20 src/oboskrnl/CMakeFiles/oboskrnl.dir/memory_manager/paging/liballoc_hooks.cpp.o
 .debug_aranges
                0x00000290       0x20 src/oboskrnl/CMakeFiles/oboskrnl.dir/memory_manager/liballoc/liballoc.c.o
 .debug_aranges
                0x000002b0       0x20 src/oboskrnl/CMakeFiles/oboskrnl.dir/external/list/list_iterator.c.o
 .debug_aranges
                0x000002d0       0x20 src/oboskrnl/CMakeFiles/oboskrnl.dir/external/list/list_node.c.o
 .debug_aranges
                0x000002f0       0x20 src/oboskrnl/CMakeFiles/oboskrnl.dir/external/list/list.c.o
 .debug_aranges
                0x00000310       0x38 src/oboskrnl/CMakeFiles/oboskrnl.dir/multitasking/multitasking.cpp.o
 .debug_aranges
                0x00000348       0x30 src/oboskrnl/CMakeFiles/oboskrnl.dir/multitasking/thread.cpp.o
 .debug_aranges
                0x00000378       0x20 src/oboskrnl/CMakeFiles/oboskrnl.dir/multitasking/mutex/mutex.cpp.o
 .debug_aranges
                0x00000398       0x40 src/oboskrnl/CMakeFiles/oboskrnl.dir/multitasking/mutex/mutexHandle.cpp.o

.debug_pubnames
                0x00000000        0x0
 .debug_pubnames
                0x00000000        0x0 src/oboskrnl/CMakeFiles/oboskrnl.dir/boot/kernel_bootstrap-i686.asm.o
 .debug_pubnames
                0x00000000        0x0 src/oboskrnl/CMakeFiles/oboskrnl.dir/descriptors/gdt/gdt.asm.o
 .debug_pubnames
                0x00000000        0x0 src/oboskrnl/CMakeFiles/oboskrnl.dir/descriptors/idt/idt.asm.o
 .debug_pubnames
                0x00000000        0x0 src/oboskrnl/CMakeFiles/oboskrnl.dir/descriptors/idt/handlers.asm.o
 .debug_pubnames
                0x00000000        0x0 src/oboskrnl/CMakeFiles/oboskrnl.dir/memory_manager/paging/init.asm.o
 .debug_pubnames
                0x00000000        0x0 src/oboskrnl/CMakeFiles/oboskrnl.dir/multitasking/multitasking.asm.o
 .debug_pubnames
                0x00000000        0x0 src/oboskrnl/CMakeFiles/oboskrnl.dir/utils/memcpy.asm.o

.debug_info     0x00000000     0xfc16
 .debug_info    0x00000000       0x71 src/oboskrnl/CMakeFiles/oboskrnl.dir/boot/kernel_bootstrap-i686.asm.o
 .debug_info    0x00000071       0x6a src/oboskrnl/CMakeFiles/oboskrnl.dir/descriptors/gdt/gdt.asm.o
 .debug_info    0x000000db       0x6a src/oboskrnl/CMakeFiles/oboskrnl.dir/descriptors/idt/idt.asm.o
 .debug_info    0x00000145       0x6f src/oboskrnl/CMakeFiles/oboskrnl.dir/descriptors/idt/handlers.asm.o
 .debug_info    0x000001b4       0x71 src/oboskrnl/CMakeFiles/oboskrnl.dir/memory_manager/paging/init.asm.o
 .debug_info    0x00000225       0x70 src/oboskrnl/CMakeFiles/oboskrnl.dir/multitasking/multitasking.asm.o
 .debug_info    0x00000295       0x63 src/oboskrnl/CMakeFiles/oboskrnl.dir/utils/memcpy.asm.o
 .debug_info    0x000002f8     0x265b src/oboskrnl/CMakeFiles/oboskrnl.dir/boot/kmain.cpp.o
 .debug_info    0x00002953     0x168b src/oboskrnl/CMakeFiles/oboskrnl.dir/console.cpp.o
 .debug_info    0x00003fde      0xc2a src/oboskrnl/CMakeFiles/oboskrnl.dir/klog.cpp.o
 .debug_info    0x00004c08      0x979 src/oboskrnl/CMakeFiles/oboskrnl.dir/inline-asm.cpp.o
 .debug_info    0x00005581      0x43a src/oboskrnl/CMakeFiles/oboskrnl.dir/descriptors/gdt/gdt.cpp.o
 .debug_info    0x000059bb      0x78c src/oboskrnl/CMakeFiles/oboskrnl.dir/descriptors/idt/idt.cpp.o
 .debug_info    0x00006147      0xf5c src/oboskrnl/CMakeFiles/oboskrnl.dir/memory_manager/physical.cpp.o
 .debug_info    0x000070a3      0xdf7 src/oboskrnl/CMakeFiles/oboskrnl.dir/utils/bitfields.cpp.o
 .debug_info    0x00007e9a      0xc86 src/oboskrnl/CMakeFiles/oboskrnl.dir/descriptors/idt/pic.cpp.o
 .debug_info    0x00008b20      0xcaf src/oboskrnl/CMakeFiles/oboskrnl.dir/memory_manager/paging/init.cpp.o
 .debug_info    0x000097cf      0xcc9 src/oboskrnl/CMakeFiles/oboskrnl.dir/memory_manager/paging/allocate.cpp.o
 .debug_info    0x0000a498      0x415 src/oboskrnl/CMakeFiles/oboskrnl.dir/utils/memory.cpp.o
 .debug_info    0x0000a8ad      0x58a src/oboskrnl/CMakeFiles/oboskrnl.dir/memory_manager/paging/liballoc_hooks.cpp.o
 .debug_info    0x0000ae37      0x758 src/oboskrnl/CMakeFiles/oboskrnl.dir/memory_manager/liballoc/liballoc.c.o
 .debug_info    0x0000b58f      0x3ac src/oboskrnl/CMakeFiles/oboskrnl.dir/external/list/list_iterator.c.o
 .debug_info    0x0000b93b      0x19f src/oboskrnl/CMakeFiles/oboskrnl.dir/external/list/list_node.c.o
 .debug_info    0x0000bada      0x58e src/oboskrnl/CMakeFiles/oboskrnl.dir/external/list/list.c.o
 .debug_info    0x0000c068     0x1698 src/oboskrnl/CMakeFiles/oboskrnl.dir/multitasking/multitasking.cpp.o
 .debug_info    0x0000d700      0xbde src/oboskrnl/CMakeFiles/oboskrnl.dir/multitasking/thread.cpp.o
 .debug_info    0x0000e2de      0x9f6 src/oboskrnl/CMakeFiles/oboskrnl.dir/multitasking/mutex/mutex.cpp.o
 .debug_info    0x0000ecd4      0xf42 src/oboskrnl/CMakeFiles/oboskrnl.dir/multitasking/mutex/mutexHandle.cpp.o

.debug_abbrev   0x00000000     0x3438
 .debug_abbrev  0x00000000       0x1b src/oboskrnl/CMakeFiles/oboskrnl.dir/boot/kernel_bootstrap-i686.asm.o
 .debug_abbrev  0x0000001b       0x1b src/oboskrnl/CMakeFiles/oboskrnl.dir/descriptors/gdt/gdt.asm.o
 .debug_abbrev  0x00000036       0x1b src/oboskrnl/CMakeFiles/oboskrnl.dir/descriptors/idt/idt.asm.o
 .debug_abbrev  0x00000051       0x1b src/oboskrnl/CMakeFiles/oboskrnl.dir/descriptors/idt/handlers.asm.o
 .debug_abbrev  0x0000006c       0x1b src/oboskrnl/CMakeFiles/oboskrnl.dir/memory_manager/paging/init.asm.o
 .debug_abbrev  0x00000087       0x1b src/oboskrnl/CMakeFiles/oboskrnl.dir/multitasking/multitasking.asm.o
 .debug_abbrev  0x000000a2       0x1b src/oboskrnl/CMakeFiles/oboskrnl.dir/utils/memcpy.asm.o
 .debug_abbrev  0x000000bd      0x5e6 src/oboskrnl/CMakeFiles/oboskrnl.dir/boot/kmain.cpp.o
 .debug_abbrev  0x000006a3      0x329 src/oboskrnl/CMakeFiles/oboskrnl.dir/console.cpp.o
 .debug_abbrev  0x000009cc      0x27f src/oboskrnl/CMakeFiles/oboskrnl.dir/klog.cpp.o
 .debug_abbrev  0x00000c4b      0x228 src/oboskrnl/CMakeFiles/oboskrnl.dir/inline-asm.cpp.o
 .debug_abbrev  0x00000e73      0x173 src/oboskrnl/CMakeFiles/oboskrnl.dir/descriptors/gdt/gdt.cpp.o
 .debug_abbrev  0x00000fe6      0x1cc src/oboskrnl/CMakeFiles/oboskrnl.dir/descriptors/idt/idt.cpp.o
 .debug_abbrev  0x000011b2      0x24b src/oboskrnl/CMakeFiles/oboskrnl.dir/memory_manager/physical.cpp.o
 .debug_abbrev  0x000013fd      0x338 src/oboskrnl/CMakeFiles/oboskrnl.dir/utils/bitfields.cpp.o
 .debug_abbrev  0x00001735      0x231 src/oboskrnl/CMakeFiles/oboskrnl.dir/descriptors/idt/pic.cpp.o
 .debug_abbrev  0x00001966      0x379 src/oboskrnl/CMakeFiles/oboskrnl.dir/memory_manager/paging/init.cpp.o
 .debug_abbrev  0x00001cdf      0x25b src/oboskrnl/CMakeFiles/oboskrnl.dir/memory_manager/paging/allocate.cpp.o
 .debug_abbrev  0x00001f3a       0xed src/oboskrnl/CMakeFiles/oboskrnl.dir/utils/memory.cpp.o
 .debug_abbrev  0x00002027      0x177 src/oboskrnl/CMakeFiles/oboskrnl.dir/memory_manager/paging/liballoc_hooks.cpp.o
 .debug_abbrev  0x0000219e      0x201 src/oboskrnl/CMakeFiles/oboskrnl.dir/memory_manager/liballoc/liballoc.c.o
 .debug_abbrev  0x0000239f      0x175 src/oboskrnl/CMakeFiles/oboskrnl.dir/external/list/list_iterator.c.o
 .debug_abbrev  0x00002514       0xbe src/oboskrnl/CMakeFiles/oboskrnl.dir/external/list/list_node.c.o
 .debug_abbrev  0x000025d2      0x1ae src/oboskrnl/CMakeFiles/oboskrnl.dir/external/list/list.c.o
 .debug_abbrev  0x00002780      0x3e4 src/oboskrnl/CMakeFiles/oboskrnl.dir/multitasking/multitasking.cpp.o
 .debug_abbrev  0x00002b64      0x2fa src/oboskrnl/CMakeFiles/oboskrnl.dir/multitasking/thread.cpp.o
 .debug_abbrev  0x00002e5e      0x2cc src/oboskrnl/CMakeFiles/oboskrnl.dir/multitasking/mutex/mutex.cpp.o
 .debug_abbrev  0x0000312a      0x30e src/oboskrnl/CMakeFiles/oboskrnl.dir/multitasking/mutex/mutexHandle.cpp.o

.debug_line     0x00000000     0x99a3
 .debug_line    0x00000000       0x76 src/oboskrnl/CMakeFiles/oboskrnl.dir/boot/kernel_bootstrap-i686.asm.o
 .debug_line    0x00000076       0x71 src/oboskrnl/CMakeFiles/oboskrnl.dir/descriptors/gdt/gdt.asm.o
 .debug_line    0x000000e7       0x6a src/oboskrnl/CMakeFiles/oboskrnl.dir/descriptors/idt/idt.asm.o
 .debug_line    0x00000151      0x135 src/oboskrnl/CMakeFiles/oboskrnl.dir/descriptors/idt/handlers.asm.o
 .debug_line    0x00000286       0x7b src/oboskrnl/CMakeFiles/oboskrnl.dir/memory_manager/paging/init.asm.o
 .debug_line    0x00000301       0x7d src/oboskrnl/CMakeFiles/oboskrnl.dir/multitasking/multitasking.asm.o
 .debug_line    0x0000037e       0xa0 src/oboskrnl/CMakeFiles/oboskrnl.dir/utils/memcpy.asm.o
 .debug_line    0x0000041e      0xcc3 src/oboskrnl/CMakeFiles/oboskrnl.dir/boot/kmain.cpp.o
 .debug_line    0x000010e1      0xcd1 src/oboskrnl/CMakeFiles/oboskrnl.dir/console.cpp.o
 .debug_line    0x00001db2      0xa22 src/oboskrnl/CMakeFiles/oboskrnl.dir/klog.cpp.o
 .debug_line    0x000027d4      0xd29 src/oboskrnl/CMakeFiles/oboskrnl.dir/inline-asm.cpp.o
 .debug_line    0x000034fd      0x22d src/oboskrnl/CMakeFiles/oboskrnl.dir/descriptors/gdt/gdt.cpp.o
 .debug_line    0x0000372a      0x39f src/oboskrnl/CMakeFiles/oboskrnl.dir/descriptors/idt/idt.cpp.o
 .debug_line    0x00003ac9      0x9f3 src/oboskrnl/CMakeFiles/oboskrnl.dir/memory_manager/physical.cpp.o
 .debug_line    0x000044bc      0x48d src/oboskrnl/CMakeFiles/oboskrnl.dir/utils/bitfields.cpp.o
 .debug_line    0x00004949      0x66d src/oboskrnl/CMakeFiles/oboskrnl.dir/descriptors/idt/pic.cpp.o
 .debug_line    0x00004fb6      0x62e src/oboskrnl/CMakeFiles/oboskrnl.dir/memory_manager/paging/init.cpp.o
 .debug_line    0x000055e4      0xb79 src/oboskrnl/CMakeFiles/oboskrnl.dir/memory_manager/paging/allocate.cpp.o
 .debug_line    0x0000615d      0x311 src/oboskrnl/CMakeFiles/oboskrnl.dir/utils/memory.cpp.o
 .debug_line    0x0000646e      0x335 src/oboskrnl/CMakeFiles/oboskrnl.dir/memory_manager/paging/liballoc_hooks.cpp.o
 .debug_line    0x000067a3     0x10ee src/oboskrnl/CMakeFiles/oboskrnl.dir/memory_manager/liballoc/liballoc.c.o
 .debug_line    0x00007891      0x219 src/oboskrnl/CMakeFiles/oboskrnl.dir/external/list/list_iterator.c.o
 .debug_line    0x00007aaa      0x17b src/oboskrnl/CMakeFiles/oboskrnl.dir/external/list/list_node.c.o
 .debug_line    0x00007c25      0x837 src/oboskrnl/CMakeFiles/oboskrnl.dir/external/list/list.c.o
 .debug_line    0x0000845c      0x81c src/oboskrnl/CMakeFiles/oboskrnl.dir/multitasking/multitasking.cpp.o
 .debug_line    0x00008c78       0x9c src/oboskrnl/CMakeFiles/oboskrnl.dir/multitasking/threadHandle.cpp.o
 .debug_line    0x00008d14      0x441 src/oboskrnl/CMakeFiles/oboskrnl.dir/multitasking/thread.cpp.o
 .debug_line    0x00009155      0x3c5 src/oboskrnl/CMakeFiles/oboskrnl.dir/multitasking/mutex/mutex.cpp.o
 .debug_line    0x0000951a      0x489 src/oboskrnl/CMakeFiles/oboskrnl.dir/multitasking/mutex/mutexHandle.cpp.o

.debug_frame    0x00000000     0x22a8
 .debug_frame   0x00000000        0x0 src/oboskrnl/CMakeFiles/oboskrnl.dir/boot/kernel_bootstrap-i686.asm.o
 .debug_frame   0x00000000        0x0 src/oboskrnl/CMakeFiles/oboskrnl.dir/descriptors/gdt/gdt.asm.o
 .debug_frame   0x00000000        0x0 src/oboskrnl/CMakeFiles/oboskrnl.dir/descriptors/idt/idt.asm.o
 .debug_frame   0x00000000        0x0 src/oboskrnl/CMakeFiles/oboskrnl.dir/descriptors/idt/handlers.asm.o
 .debug_frame   0x00000000        0x0 src/oboskrnl/CMakeFiles/oboskrnl.dir/memory_manager/paging/init.asm.o
 .debug_frame   0x00000000        0x0 src/oboskrnl/CMakeFiles/oboskrnl.dir/multitasking/multitasking.asm.o
 .debug_frame   0x00000000        0x0 src/oboskrnl/CMakeFiles/oboskrnl.dir/utils/memcpy.asm.o
 .debug_frame   0x00000000      0x450 src/oboskrnl/CMakeFiles/oboskrnl.dir/boot/kmain.cpp.o
 .debug_frame   0x00000450      0x308 src/oboskrnl/CMakeFiles/oboskrnl.dir/console.cpp.o
 .debug_frame   0x00000758      0x1d4 src/oboskrnl/CMakeFiles/oboskrnl.dir/klog.cpp.o
 .debug_frame   0x0000092c      0x1f8 src/oboskrnl/CMakeFiles/oboskrnl.dir/inline-asm.cpp.o
 .debug_frame   0x00000b24       0x6c src/oboskrnl/CMakeFiles/oboskrnl.dir/descriptors/gdt/gdt.cpp.o
 .debug_frame   0x00000b90       0x98 src/oboskrnl/CMakeFiles/oboskrnl.dir/descriptors/idt/idt.cpp.o
 .debug_frame   0x00000c28      0x12c src/oboskrnl/CMakeFiles/oboskrnl.dir/memory_manager/physical.cpp.o
 .debug_frame   0x00000d54      0x3ac src/oboskrnl/CMakeFiles/oboskrnl.dir/utils/bitfields.cpp.o
 .debug_frame   0x00001100      0x300 src/oboskrnl/CMakeFiles/oboskrnl.dir/descriptors/idt/pic.cpp.o
 .debug_frame   0x00001400      0x200 src/oboskrnl/CMakeFiles/oboskrnl.dir/memory_manager/paging/init.cpp.o
 .debug_frame   0x00001600      0x154 src/oboskrnl/CMakeFiles/oboskrnl.dir/memory_manager/paging/allocate.cpp.o
 .debug_frame   0x00001754       0x98 src/oboskrnl/CMakeFiles/oboskrnl.dir/utils/memory.cpp.o
 .debug_frame   0x000017ec      0x1cc src/oboskrnl/CMakeFiles/oboskrnl.dir/memory_manager/paging/liballoc_hooks.cpp.o
 .debug_frame   0x000019b8      0x160 src/oboskrnl/CMakeFiles/oboskrnl.dir/memory_manager/liballoc/liballoc.c.o
 .debug_frame   0x00001b18       0xc4 src/oboskrnl/CMakeFiles/oboskrnl.dir/external/list/list_iterator.c.o
 .debug_frame   0x00001bdc       0x40 src/oboskrnl/CMakeFiles/oboskrnl.dir/external/list/list_node.c.o
 .debug_frame   0x00001c1c      0x1a0 src/oboskrnl/CMakeFiles/oboskrnl.dir/external/list/list.c.o
 .debug_frame   0x00001dbc      0x164 src/oboskrnl/CMakeFiles/oboskrnl.dir/multitasking/multitasking.cpp.o
 .debug_frame   0x00001f20       0xc4 src/oboskrnl/CMakeFiles/oboskrnl.dir/multitasking/thread.cpp.o
 .debug_frame   0x00001fe4       0xc4 src/oboskrnl/CMakeFiles/oboskrnl.dir/multitasking/mutex/mutex.cpp.o
 .debug_frame   0x000020a8      0x200 src/oboskrnl/CMakeFiles/oboskrnl.dir/multitasking/mutex/mutexHandle.cpp.o

.debug_loc      0x00000000        0x0
 .debug_loc     0x00000000        0x0 src/oboskrnl/CMakeFiles/oboskrnl.dir/boot/kernel_bootstrap-i686.asm.o
 .debug_loc     0x00000000        0x0 src/oboskrnl/CMakeFiles/oboskrnl.dir/descriptors/gdt/gdt.asm.o
 .debug_loc     0x00000000        0x0 src/oboskrnl/CMakeFiles/oboskrnl.dir/descriptors/idt/idt.asm.o
 .debug_loc     0x00000000        0x0 src/oboskrnl/CMakeFiles/oboskrnl.dir/descriptors/idt/handlers.asm.o
 .debug_loc     0x00000000        0x0 src/oboskrnl/CMakeFiles/oboskrnl.dir/memory_manager/paging/init.asm.o
 .debug_loc     0x00000000        0x0 src/oboskrnl/CMakeFiles/oboskrnl.dir/multitasking/multitasking.asm.o
 .debug_loc     0x00000000        0x0 src/oboskrnl/CMakeFiles/oboskrnl.dir/utils/memcpy.asm.o

.debug_rnglists
                0x00000000      0x12b
 .debug_rnglists
                0x00000000       0x28 src/oboskrnl/CMakeFiles/oboskrnl.dir/boot/kmain.cpp.o
 .debug_rnglists
                0x00000028       0x32 src/oboskrnl/CMakeFiles/oboskrnl.dir/console.cpp.o
 .debug_rnglists
                0x0000005a       0x1f src/oboskrnl/CMakeFiles/oboskrnl.dir/klog.cpp.o
 .debug_rnglists
                0x00000079       0x1f src/oboskrnl/CMakeFiles/oboskrnl.dir/memory_manager/paging/allocate.cpp.o
 .debug_rnglists
                0x00000098       0x31 src/oboskrnl/CMakeFiles/oboskrnl.dir/multitasking/multitasking.cpp.o
 .debug_rnglists
                0x000000c9       0x28 src/oboskrnl/CMakeFiles/oboskrnl.dir/multitasking/thread.cpp.o
 .debug_rnglists
                0x000000f1       0x3a src/oboskrnl/CMakeFiles/oboskrnl.dir/multitasking/mutex/mutexHandle.cpp.o

.debug_str      0x00000000      0x2ec
 .debug_str     0x00000000       0x88 src/oboskrnl/CMakeFiles/oboskrnl.dir/boot/kmain.cpp.o
 .debug_str     0x00000088       0x39 src/oboskrnl/CMakeFiles/oboskrnl.dir/console.cpp.o
 .debug_str     0x000000c1        0x7 src/oboskrnl/CMakeFiles/oboskrnl.dir/klog.cpp.o
 .debug_str     0x000000c8        0x0 src/oboskrnl/CMakeFiles/oboskrnl.dir/inline-asm.cpp.o
 .debug_str     0x000000c8        0x9 src/oboskrnl/CMakeFiles/oboskrnl.dir/descriptors/gdt/gdt.cpp.o
 .debug_str     0x000000d1        0x9 src/oboskrnl/CMakeFiles/oboskrnl.dir/descriptors/idt/idt.cpp.o
 .debug_str     0x000000da        0xe src/oboskrnl/CMakeFiles/oboskrnl.dir/memory_manager/physical.cpp.o
 .debug_str     0x000000e8       0x5e src/oboskrnl/CMakeFiles/oboskrnl.dir/utils/bitfields.cpp.o
 .debug_str     0x00000146       0x39 src/oboskrnl/CMakeFiles/oboskrnl.dir/descriptors/idt/pic.cpp.o
 .debug_str     0x0000017f       0x2d src/oboskrnl/CMakeFiles/oboskrnl.dir/memory_manager/paging/init.cpp.o
 .debug_str     0x000001ac       0x4b src/oboskrnl/CMakeFiles/oboskrnl.dir/memory_manager/paging/allocate.cpp.o
 .debug_str     0x000001f7        0x0 src/oboskrnl/CMakeFiles/oboskrnl.dir/utils/memory.cpp.o
 .debug_str     0x000001f7       0x29 src/oboskrnl/CMakeFiles/oboskrnl.dir/memory_manager/paging/liballoc_hooks.cpp.o
 .debug_str     0x00000220       0x26 src/oboskrnl/CMakeFiles/oboskrnl.dir/memory_manager/liballoc/liballoc.c.o
 .debug_str     0x00000246        0xa src/oboskrnl/CMakeFiles/oboskrnl.dir/external/list/list_iterator.c.o
 .debug_str     0x00000250        0x0 src/oboskrnl/CMakeFiles/oboskrnl.dir/external/list/list_node.c.o
 .debug_str     0x00000250       0x14 src/oboskrnl/CMakeFiles/oboskrnl.dir/external/list/list.c.o
 .debug_str     0x00000264        0x7 src/oboskrnl/CMakeFiles/oboskrnl.dir/multitasking/multitasking.cpp.o
 .debug_str     0x0000026b        0x0 src/oboskrnl/CMakeFiles/oboskrnl.dir/multitasking/threadHandle.cpp.o
 .debug_str     0x0000026b       0x3b src/oboskrnl/CMakeFiles/oboskrnl.dir/multitasking/thread.cpp.o
 .debug_str     0x000002a6        0x7 src/oboskrnl/CMakeFiles/oboskrnl.dir/multitasking/mutex/mutex.cpp.o
 .debug_str     0x000002ad       0x3f src/oboskrnl/CMakeFiles/oboskrnl.dir/multitasking/mutex/mutexHandle.cpp.o
