
Memory Configuration

Name             Origin             Length             Attributes
*default*        0x0000000000000000 0xffffffffffffffff

Linker script and memory map

LOAD /home/omar/opt/cross/lib/gcc/x86_64-elf/11.4.0/crtbegin.o
LOAD /home/omar/opt/cross/lib/gcc/x86_64-elf/11.4.0/crtend.o
LOAD src/oboskrnl/CMakeFiles/oboskrnl.dir/boot/x86-64/kernel_bootstrap.asm.obj
LOAD src/oboskrnl/CMakeFiles/oboskrnl.dir/boot/kmain.cpp.obj
LOAD /home/omar/opt/cross/lib/gcc/x86_64-elf/11.4.0/libgcc.a
                0x0000000000100000                . = 0x100000

.text           0x0000000000100000     0x12c0
 *(.multiboot)
 *(.text)
 .text          0x0000000000100000      0x12d /home/omar/opt/cross/lib/gcc/x86_64-elf/11.4.0/crtbegin.o
 *fill*         0x000000000010012d        0x3 
 .text          0x0000000000100130       0x41 /home/omar/opt/cross/lib/gcc/x86_64-elf/11.4.0/crtend.o
 *fill*         0x0000000000100171        0xf 
 .text          0x0000000000100180       0xde src/oboskrnl/CMakeFiles/oboskrnl.dir/boot/x86-64/kernel_bootstrap.asm.obj
                0x0000000000100190                _start
                0x0000000000100251                _ZN4obos15RestartComputerEv
 .text          0x000000000010025e     0x1062 src/oboskrnl/CMakeFiles/oboskrnl.dir/boot/kmain.cpp.obj
                0x000000000010025e                _ZN4obos9pageFaultEPKNS_15interrupt_frameE
                0x00000000001004ef                _ZN4obos23defaultExceptionHandlerEPKNS_15interrupt_frameE
                0x0000000000100731                _ZN4obos5kmainEP14multiboot_infoj
                0x0000000000100b1e                _ZN4obos8kmainThrEv
                0x0000000000101081                __cxa_pure_virtual
                0x00000000001010a4                __cxa_atexit
                0x0000000000101147                __cxa_finalize

.fini           0x00000000001012c0        0x5
 .fini          0x00000000001012c0        0x5 /home/omar/opt/cross/lib/gcc/x86_64-elf/11.4.0/crtbegin.o

.init           0x00000000001012c5        0xa
 .init          0x00000000001012c5        0x5 /home/omar/opt/cross/lib/gcc/x86_64-elf/11.4.0/crtbegin.o
 .init          0x00000000001012ca        0x5 /home/omar/opt/cross/lib/gcc/x86_64-elf/11.4.0/crtend.o

.iplt           0x00000000001012cf        0x0
 .iplt          0x00000000001012cf        0x0 /home/omar/opt/cross/lib/gcc/x86_64-elf/11.4.0/crtbegin.o

.gnu.linkonce.t._ZN4obos6Handle7getTypeEv
                0x00000000001012d0        0xf
 .gnu.linkonce.t._ZN4obos6Handle7getTypeEv
                0x00000000001012d0        0xf src/oboskrnl/CMakeFiles/oboskrnl.dir/boot/kmain.cpp.obj
                0x00000000001012d0                _ZN4obos6Handle7getTypeEv

.gnu.linkonce.t._ZN4obos6HandleD2Ev
                0x00000000001012e0       0x17
 .gnu.linkonce.t._ZN4obos6HandleD2Ev
                0x00000000001012e0       0x17 src/oboskrnl/CMakeFiles/oboskrnl.dir/boot/kmain.cpp.obj
                0x00000000001012e0                _ZN4obos6HandleD2Ev

.gnu.linkonce.t._ZN4obos12multitasking12ThreadHandleD1Ev
                0x00000000001012f8       0x33
 .gnu.linkonce.t._ZN4obos12multitasking12ThreadHandleD1Ev
                0x00000000001012f8       0x33 src/oboskrnl/CMakeFiles/oboskrnl.dir/boot/kmain.cpp.obj
                0x00000000001012f8                _ZN4obos12multitasking12ThreadHandleD1Ev

.rodata         0x0000000000102000      0x815
 *(.rodata)
 .rodata        0x0000000000102000      0x815 src/oboskrnl/CMakeFiles/oboskrnl.dir/boot/kmain.cpp.obj

.gnu.linkonce.r._ZTVN4obos6HandleE
                0x0000000000102818       0x38
 .gnu.linkonce.r._ZTVN4obos6HandleE
                0x0000000000102818       0x38 src/oboskrnl/CMakeFiles/oboskrnl.dir/boot/kmain.cpp.obj
                0x0000000000102818                _ZTVN4obos6HandleE

.data           0x0000000000103000     0x6424
 *(.data)
 .data          0x0000000000103000        0x8 /home/omar/opt/cross/lib/gcc/x86_64-elf/11.4.0/crtbegin.o
                0x0000000000103000                __dso_handle
 .data          0x0000000000103008        0x0 /home/omar/opt/cross/lib/gcc/x86_64-elf/11.4.0/crtend.o
 *fill*         0x0000000000103008      0xff8 
 .data          0x0000000000104000     0x5424 src/oboskrnl/CMakeFiles/oboskrnl.dir/boot/x86-64/kernel_bootstrap.asm.obj
                0x0000000000106000                boot_page_directory1
 .data          0x0000000000109424        0x0 src/oboskrnl/CMakeFiles/oboskrnl.dir/boot/kmain.cpp.obj

.ctors          0x0000000000109428       0x18
 .ctors         0x0000000000109428        0x8 /home/omar/opt/cross/lib/gcc/x86_64-elf/11.4.0/crtbegin.o
 .ctors         0x0000000000109430        0x8 /home/omar/opt/cross/lib/gcc/x86_64-elf/11.4.0/crtend.o
 .ctors         0x0000000000109438        0x8 src/oboskrnl/CMakeFiles/oboskrnl.dir/boot/kmain.cpp.obj

.dtors          0x0000000000109440       0x10
 .dtors         0x0000000000109440        0x8 /home/omar/opt/cross/lib/gcc/x86_64-elf/11.4.0/crtbegin.o
 .dtors         0x0000000000109448        0x8 /home/omar/opt/cross/lib/gcc/x86_64-elf/11.4.0/crtend.o
                0x0000000000109448                __DTOR_END__

.eh_frame       0x0000000000109450      0x2d0
 .eh_frame      0x0000000000109450        0x0 /home/omar/opt/cross/lib/gcc/x86_64-elf/11.4.0/crtbegin.o
 .eh_frame      0x0000000000109450        0x0 /home/omar/opt/cross/lib/gcc/x86_64-elf/11.4.0/crtend.o
                                          0x4 (size before relaxing)
 *fill*         0x0000000000109450        0x0 
 .eh_frame      0x0000000000109450      0x2d0 src/oboskrnl/CMakeFiles/oboskrnl.dir/boot/kmain.cpp.obj
                                        0x300 (size before relaxing)

.rela.dyn       0x0000000000109720        0x0
 .rela.got      0x0000000000109720        0x0 /home/omar/opt/cross/lib/gcc/x86_64-elf/11.4.0/crtbegin.o
 .rela.iplt     0x0000000000109720        0x0 /home/omar/opt/cross/lib/gcc/x86_64-elf/11.4.0/crtbegin.o
 .rela.text     0x0000000000109720        0x0 /home/omar/opt/cross/lib/gcc/x86_64-elf/11.4.0/crtbegin.o
 .rela.gnu.linkonce.t._ZN4obos6HandleD2Ev
                0x0000000000109720        0x0 /home/omar/opt/cross/lib/gcc/x86_64-elf/11.4.0/crtbegin.o
 .rela.gnu.linkonce.t._ZN4obos12multitasking12ThreadHandleD1Ev
                0x0000000000109720        0x0 /home/omar/opt/cross/lib/gcc/x86_64-elf/11.4.0/crtbegin.o
 .rela.gnu.linkonce.r._ZTVN4obos6HandleE
                0x0000000000109720        0x0 /home/omar/opt/cross/lib/gcc/x86_64-elf/11.4.0/crtbegin.o

.tm_clone_table
                0x0000000000109720        0x0
 .tm_clone_table
                0x0000000000109720        0x0 /home/omar/opt/cross/lib/gcc/x86_64-elf/11.4.0/crtbegin.o
 .tm_clone_table
                0x0000000000109720        0x0 /home/omar/opt/cross/lib/gcc/x86_64-elf/11.4.0/crtend.o

.got            0x0000000000109720        0x0
 .got           0x0000000000109720        0x0 /home/omar/opt/cross/lib/gcc/x86_64-elf/11.4.0/crtbegin.o

.got.plt        0x0000000000109720        0x0
 .got.plt       0x0000000000109720        0x0 /home/omar/opt/cross/lib/gcc/x86_64-elf/11.4.0/crtbegin.o

.igot.plt       0x0000000000109720        0x0
 .igot.plt      0x0000000000109720        0x0 /home/omar/opt/cross/lib/gcc/x86_64-elf/11.4.0/crtbegin.o

.bss            0x000000000010a000     0x98a4
 *(COMMON)
 *(.bss)
 .bss           0x000000000010a000       0x50 /home/omar/opt/cross/lib/gcc/x86_64-elf/11.4.0/crtbegin.o
 .bss           0x000000000010a050        0x0 /home/omar/opt/cross/lib/gcc/x86_64-elf/11.4.0/crtend.o
 *fill*         0x000000000010a050       0x10 
 .bss           0x000000000010a060     0x1844 src/oboskrnl/CMakeFiles/oboskrnl.dir/boot/kmain.cpp.obj
                0x000000000010a060                _ZN4obos15g_multibootInfoE
                0x000000000010a070                _ZN4obos15g_pageDirectoryE
                0x000000000010a080                _ZN4obos15g_kernelProcessE
                0x000000000010a0a0                __atexitFuncs
                0x000000000010b8a0                __atexitFuncCount
 *(.bootstrap_stack)
 .bootstrap_stack
                0x000000000010b8a4     0x8000 src/oboskrnl/CMakeFiles/oboskrnl.dir/boot/x86-64/kernel_bootstrap.asm.obj
                0x000000000010b8a4                _ZN4obos12stack_bottomE
                0x000000000010f8a4                _ZN4obos9stack_topE
                0x000000000010f8a4                _ZN4obos15thrstack_bottomE
                0x00000000001138a4                _ZN4obos12thrstack_topE
                0x0000000000400000                _ZN4obos6memory8endImageE = 0x400000
                0x00000000e0000000                _ZN4obos6memory9endKernelE = 0xe0000000
OUTPUT(/mnt/c/Code/obos/out/oboskrnl elf64-x86-64)

.comment        0x0000000000000000       0x12
 .comment       0x0000000000000000       0x12 /home/omar/opt/cross/lib/gcc/x86_64-elf/11.4.0/crtbegin.o
                                         0x13 (size before relaxing)
 .comment       0x0000000000000012       0x13 /home/omar/opt/cross/lib/gcc/x86_64-elf/11.4.0/crtend.o
 .comment       0x0000000000000012       0x13 src/oboskrnl/CMakeFiles/oboskrnl.dir/boot/kmain.cpp.obj

.debug_aranges  0x0000000000000000       0x90
 .debug_aranges
                0x0000000000000000       0x30 src/oboskrnl/CMakeFiles/oboskrnl.dir/boot/x86-64/kernel_bootstrap.asm.obj
 .debug_aranges
                0x0000000000000030       0x60 src/oboskrnl/CMakeFiles/oboskrnl.dir/boot/kmain.cpp.obj

.debug_pubnames
                0x0000000000000000        0x0
 .debug_pubnames
                0x0000000000000000        0x0 src/oboskrnl/CMakeFiles/oboskrnl.dir/boot/x86-64/kernel_bootstrap.asm.obj

.debug_info     0x0000000000000000     0x3779
 .debug_info    0x0000000000000000       0x83 src/oboskrnl/CMakeFiles/oboskrnl.dir/boot/x86-64/kernel_bootstrap.asm.obj
 .debug_info    0x0000000000000083     0x36f6 src/oboskrnl/CMakeFiles/oboskrnl.dir/boot/kmain.cpp.obj

.debug_abbrev   0x0000000000000000      0x7c8
 .debug_abbrev  0x0000000000000000       0x1b src/oboskrnl/CMakeFiles/oboskrnl.dir/boot/x86-64/kernel_bootstrap.asm.obj
 .debug_abbrev  0x000000000000001b      0x7ad src/oboskrnl/CMakeFiles/oboskrnl.dir/boot/kmain.cpp.obj

.debug_line     0x0000000000000000     0x18e3
 .debug_line    0x0000000000000000       0xb3 src/oboskrnl/CMakeFiles/oboskrnl.dir/boot/x86-64/kernel_bootstrap.asm.obj
 .debug_line    0x00000000000000b3     0x1830 src/oboskrnl/CMakeFiles/oboskrnl.dir/boot/kmain.cpp.obj

.debug_frame    0x0000000000000000      0x320
 .debug_frame   0x0000000000000000        0x0 src/oboskrnl/CMakeFiles/oboskrnl.dir/boot/x86-64/kernel_bootstrap.asm.obj
 .debug_frame   0x0000000000000000      0x320 src/oboskrnl/CMakeFiles/oboskrnl.dir/boot/kmain.cpp.obj

.debug_loc      0x0000000000000000        0x0
 .debug_loc     0x0000000000000000        0x0 src/oboskrnl/CMakeFiles/oboskrnl.dir/boot/x86-64/kernel_bootstrap.asm.obj

.debug_rnglists
                0x0000000000000000       0x51
 .debug_rnglists
                0x0000000000000000       0x51 src/oboskrnl/CMakeFiles/oboskrnl.dir/boot/kmain.cpp.obj

.debug_str      0x0000000000000000       0xa5
 .debug_str     0x0000000000000000       0xa5 src/oboskrnl/CMakeFiles/oboskrnl.dir/boot/kmain.cpp.obj
