
Memory Configuration

Name             Origin             Length             Attributes
*default*        0x00000000         0xffffffff

Linker script and memory map

LOAD /tmp/ccalMsTq.o
LOAD /home/omar/opt/cross/lib/gcc/i686-elf/11.4.0/crtbegin.o
LOAD /home/omar/opt/cross/lib/gcc/i686-elf/11.4.0/crtend.o
LOAD /tmp/ccQqHsx9.o
LOAD /home/omar/opt/cross/lib/gcc/i686-elf/11.4.0/libgcc.a
LOAD src/oboskrnl/CMakeFiles/oboskrnl.dir/boot/kernel_bootstrap-i686.asm.o
LOAD src/oboskrnl/CMakeFiles/oboskrnl.dir/descriptors/gdt/gdt.asm.o
LOAD src/oboskrnl/CMakeFiles/oboskrnl.dir/descriptors/idt/idt.asm.o
LOAD src/oboskrnl/CMakeFiles/oboskrnl.dir/descriptors/idt/handlers.asm.o
LOAD src/oboskrnl/CMakeFiles/oboskrnl.dir/memory_manager/paging/init.asm.o
LOAD src/oboskrnl/CMakeFiles/oboskrnl.dir/boot/kmain.cpp.o
LOAD src/oboskrnl/CMakeFiles/oboskrnl.dir/console.cpp.o
LOAD src/oboskrnl/CMakeFiles/oboskrnl.dir/klog.cpp.o
LOAD src/oboskrnl/CMakeFiles/oboskrnl.dir/inline-asm.cpp.o
LOAD src/oboskrnl/CMakeFiles/oboskrnl.dir/descriptors/gdt/gdt.cpp.o
LOAD src/oboskrnl/CMakeFiles/oboskrnl.dir/descriptors/idt/idt.cpp.o
LOAD src/oboskrnl/CMakeFiles/oboskrnl.dir/memory_manager/physical.cpp.o
LOAD src/oboskrnl/CMakeFiles/oboskrnl.dir/utils/bitfields.cpp.o
LOAD src/oboskrnl/CMakeFiles/oboskrnl.dir/descriptors/idt/pic.cpp.o
LOAD src/oboskrnl/CMakeFiles/oboskrnl.dir/memory_manager/paging/init.cpp.o
                0x00100000                        . = 0x100000

.text           0x00100000     0x30e8
 *(.multiboot)
 .multiboot     0x00100000       0x30 src/oboskrnl/CMakeFiles/oboskrnl.dir/boot/kernel_bootstrap-i686.asm.o
 *(.text)
 .text          0x00100030        0x0 /tmp/ccalMsTq.o
 .text          0x00100030      0x145 /home/omar/opt/cross/lib/gcc/i686-elf/11.4.0/crtbegin.o
 *fill*         0x00100175        0xb 
 .text          0x00100180       0x41 /home/omar/opt/cross/lib/gcc/i686-elf/11.4.0/crtend.o
 .text          0x001001c1        0x0 /tmp/ccQqHsx9.o
 *fill*         0x001001c1        0xf 
 .text          0x001001d0       0x1e src/oboskrnl/CMakeFiles/oboskrnl.dir/boot/kernel_bootstrap-i686.asm.o
                0x001001d0                _start
 *fill*         0x001001ee        0x2 
 .text          0x001001f0       0x1d src/oboskrnl/CMakeFiles/oboskrnl.dir/descriptors/gdt/gdt.asm.o
                0x001001f0                gdtFlush
 *fill*         0x0010020d        0x3 
 .text          0x00100210        0x8 src/oboskrnl/CMakeFiles/oboskrnl.dir/descriptors/idt/idt.asm.o
                0x00100210                _ZN4obos8idtFlushEj
 *fill*         0x00100218        0x8 
 .text          0x00100220      0x1ce src/oboskrnl/CMakeFiles/oboskrnl.dir/descriptors/idt/handlers.asm.o
                0x00100220                isr0
                0x0010022a                isr1
                0x00100234                isr2
                0x0010023e                isr3
                0x00100248                isr4
                0x00100252                isr5
                0x0010025c                isr6
                0x00100266                isr7
                0x00100270                isr8
                0x00100278                isr9
                0x00100282                isr10
                0x0010028a                isr11
                0x00100292                isr12
                0x0010029a                isr13
                0x001002a2                isr14
                0x001002aa                isr15
                0x001002b4                isr16
                0x001002be                isr17
                0x001002c8                isr18
                0x001002d2                isr19
                0x001002dc                isr20
                0x001002e6                isr21
                0x001002ee                isr22
                0x001002f8                isr23
                0x00100302                isr24
                0x0010030c                isr25
                0x00100316                isr26
                0x00100320                isr27
                0x0010032a                isr28
                0x00100334                isr29
                0x0010033c                isr30
                0x00100344                isr31
                0x0010034e                isr32
                0x00100358                isr33
                0x00100362                isr34
                0x0010036c                isr35
                0x00100376                isr36
                0x00100380                isr37
                0x0010038a                isr38
                0x00100394                isr39
                0x0010039e                isr40
                0x001003a8                isr41
                0x001003b2                isr42
                0x001003bc                isr43
                0x001003c6                isr44
                0x001003d0                isr45
                0x001003da                isr46
                0x001003e4                isr47
 *fill*         0x001003ee        0x2 
 .text          0x001003f0       0x23 src/oboskrnl/CMakeFiles/oboskrnl.dir/memory_manager/paging/init.asm.o
                0x001003f0                _ZN4obos6memory13PageDirectory12switchToThisEv
                0x0010040f                _ZN4obos6memory19GetPageFaultAddressEv
 *fill*         0x00100413        0x1 
 .text          0x00100414      0x33e src/oboskrnl/CMakeFiles/oboskrnl.dir/boot/kmain.cpp.o
                0x00100504                _ZN4obos5kmainEP14multiboot_infoj
                0x001005e3                __cxa_pure_virtual
                0x001005fc                __cxa_atexit
                0x00100674                __cxa_finalize
 .text          0x00100752      0x639 src/oboskrnl/CMakeFiles/oboskrnl.dir/console.cpp.o
                0x001008f5                _ZN4obos17InitializeConsoleENS_12ConsoleColorES0_
                0x001009b5                _ZN4obos9SetCursorEb
                0x00100a68                _ZN4obos15SetConsoleColorENS_12ConsoleColorES0_
                0x00100a83                _ZN4obos15GetConsoleColorERNS_12ConsoleColorES1_
                0x00100aaf                _ZN4obos13ConsoleOutputEPKcj
                0x00100aea                _ZN4obos19ConsoleOutputStringEPKc
                0x00100b2c                _ZN4obos22ConsoleOutputCharacterEc
                0x00100d00                _ZN4obos25SetTerminalCursorPositionEjj
 .text          0x00100d8b       0x28 src/oboskrnl/CMakeFiles/oboskrnl.dir/klog.cpp.o
                0x00100d8b                _ZN4obos7_kpanicEPKc
 .text          0x00100db3      0x7cc src/oboskrnl/CMakeFiles/oboskrnl.dir/inline-asm.cpp.o
                0x00100db3                _Z4outbth
                0x00100dd4                _Z4outwtt
                0x00100df5                _Z3inbt
                0x00100e12                _Z3inwt
                0x00100e31                _Z7io_waitv
                0x00100e46                _Z3cliv
                0x00100e5a                _Z3stiv
                0x00100e6e                _Z3hltv
                0x00100e75                _Z4_inth
                0x0010152d                _ZN4obos18EnterKernelSectionEv
                0x00101548                _ZN4obos18LeaveKernelSectionEv
 *fill*         0x0010157f        0x1 
 .text          0x00101580      0x1ae src/oboskrnl/CMakeFiles/oboskrnl.dir/descriptors/gdt/gdt.cpp.o
                0x00101580                _ZN4obos8GdtEntryC2Ejjhh
                0x00101580                _ZN4obos8GdtEntryC1Ejjhh
                0x001015f9                _ZN4obos13InitializeGdtEv
 .text          0x0010172e      0x9e0 src/oboskrnl/CMakeFiles/oboskrnl.dir/descriptors/idt/idt.cpp.o
                0x0010172e                _ZN4obos8IdtEntryC2Ejth
                0x0010172e                _ZN4obos8IdtEntryC1Ejth
                0x00101781                _ZN4obos13InitializeIdtEv
                0x001020ba                _ZN4obos24RegisterInterruptHandlerEhPFvPKNS_15interrupt_frameEE
 .text          0x0010210e      0x69d src/oboskrnl/CMakeFiles/oboskrnl.dir/memory_manager/physical.cpp.o
                0x001021f4                _ZN4obos6memory31InitializePhysicalMemoryManagerEv
                0x00102429                _ZN4obos6memory20kalloc_physicalPagesEj
                0x00102679                _ZN4obos6memory19kfree_physicalPagesEPvj
 *fill*         0x001027ab        0x1 
 .text          0x001027ac      0x2b3 src/oboskrnl/CMakeFiles/oboskrnl.dir/utils/bitfields.cpp.o
                0x001027ca                _ZN4obos5utils12BitfieldBaseC2Ev
                0x001027ca                _ZN4obos5utils12BitfieldBaseC1Ev
                0x001027e4                _ZN4obos5utils12BitfieldBase6setBitEj
                0x001027fc                _ZN4obos5utils12BitfieldBase8clearBitEj
                0x00102816                _ZNK4obos5utils12BitfieldBase6getBitEj
                0x0010282a                _ZNK4obos5utils12BitfieldBaseixEj
                0x0010284a                _ZN4obos5utils12BitfieldBasecvjEv
                0x00102856                _ZN4obos5utils12BitfieldBasecvbEv
                0x00102868                _ZN4obos5utils8BitfieldC2Ev
                0x00102868                _ZN4obos5utils8BitfieldC1Ev
                0x00102884                _ZN4obos5utils8Bitfield6setBitEh
                0x001028ba                _ZN4obos5utils8Bitfield8clearBitEh
                0x001028f0                _ZNK4obos5utils8Bitfield6getBitEh
                0x0010293c                _ZNK4obos5utils8BitfieldixEh
                0x00102964                _ZN4obos5utils8BitfieldcvbEv
                0x00102976                _ZN4obos5utils15IntegerBitfieldC2Ev
                0x00102976                _ZN4obos5utils15IntegerBitfieldC1Ev
                0x00102992                _ZN4obos5utils15IntegerBitfieldC2Ej
                0x00102992                _ZN4obos5utils15IntegerBitfieldC1Ej
                0x001029b8                _ZN4obos5utils15IntegerBitfield11setBitfieldEj
                0x001029c7                _ZN4obos5utils16setBitInBitfieldERjh
                0x001029f5                _ZN4obos5utils18clearBitInBitfieldERjh
                0x00102a23                _ZN4obos5utils17testBitInBitfieldERKjh
 *fill*         0x00102a5f        0x1 
 .text          0x00102a60      0x3c8 src/oboskrnl/CMakeFiles/oboskrnl.dir/descriptors/idt/pic.cpp.o
                0x00102a60                _ZN4obos3PicC2Ett
                0x00102a60                _ZN4obos3PicC1Ett
                0x00102aa8                _ZN4obos3Pic8setPortsEtt
                0x00102adc                _ZN4obos3Pic15sendCommandByteEh
                0x00102b1a                _ZN4obos3Pic15sendCommandWordEt
                0x00102b5a                _ZN4obos3Pic12sendDataByteEh
                0x00102b9a                _ZN4obos3Pic12sendDataWordEt
                0x00102bda                _ZN4obos3Pic15recvCommandByteEv
                0x00102c0e                _ZN4obos3Pic15recvCommandWordEv
                0x00102c42                _ZN4obos3Pic12recvDataByteEv
                0x00102c76                _ZN4obos3Pic12recvDataWordEv
                0x00102caa                _ZN4obos3Pic7sendEOIEv
                0x00102cc4                _ZN4obos3Pic5remapEhh
                0x00102d20                _ZN4obos3Pic9enableIrqEh
                0x00102d6c                _ZN4obos3Pic10disableIrqEh
                0x00102db8                _ZN4obos3Pic7disableEv
                0x00102dd4                _ZN4obos3Pic15issuedInterruptEh
 .text          0x00102e28      0x2c0 src/oboskrnl/CMakeFiles/oboskrnl.dir/memory_manager/paging/init.cpp.o
                0x00102e28                _ZN4obos6memory13PageDirectoryC2Ev
                0x00102e28                _ZN4obos6memory13PageDirectoryC1Ev
                0x00102e50                _ZN4obos6memory13PageDirectory4initEv
                0x00102e8c                _ZN4obos6memory13PageDirectory19getPageTableAddressEt
                0x00102ec6                _ZN4obos6memory13PageDirectory12getPageTableEt
                0x00102f08                _ZN4obos6memory13PageDirectory7destroyEv
                0x00102f62                _ZN4obos6memory13PageDirectoryD1Ev
                0x00102f62                _ZN4obos6memory13PageDirectoryD2Ev
                0x00102f7a                _ZN4obos6memory13PageDirectory14addressToIndexEj
                0x00102f85                _ZN4obos6memory16InitializePagingEv
                0x001030e8                        _ZN4obos6memory7__etextE = .

.init           0x001030e8        0xf
 .init          0x001030e8        0x3 /tmp/ccalMsTq.o
                0x001030e8                _init
 .init          0x001030eb        0x5 /home/omar/opt/cross/lib/gcc/i686-elf/11.4.0/crtbegin.o
 .init          0x001030f0        0x5 /home/omar/opt/cross/lib/gcc/i686-elf/11.4.0/crtend.o
 .init          0x001030f5        0x2 /tmp/ccQqHsx9.o

.fini           0x001030f7        0xa
 .fini          0x001030f7        0x3 /tmp/ccalMsTq.o
                0x001030f7                _fini
 .fini          0x001030fa        0x5 /home/omar/opt/cross/lib/gcc/i686-elf/11.4.0/crtbegin.o
 .fini          0x001030ff        0x2 /tmp/ccQqHsx9.o

.iplt           0x00103101        0x0
 .iplt          0x00103101        0x0 /tmp/ccalMsTq.o

.rodata         0x00104000      0x59c
 *(.rodata)
 .rodata        0x00104000       0xbd src/oboskrnl/CMakeFiles/oboskrnl.dir/boot/kmain.cpp.o
 *fill*         0x001040bd        0x3 
 .rodata        0x001040c0       0x40 src/oboskrnl/CMakeFiles/oboskrnl.dir/console.cpp.o
 .rodata        0x00104100      0x400 src/oboskrnl/CMakeFiles/oboskrnl.dir/inline-asm.cpp.o
 .rodata        0x00104500       0x94 src/oboskrnl/CMakeFiles/oboskrnl.dir/memory_manager/physical.cpp.o
 .rodata        0x00104594        0x8 src/oboskrnl/CMakeFiles/oboskrnl.dir/memory_manager/paging/init.cpp.o
                0x0010459c                        _ZN4obos6memory9__erodataE = .

.eh_frame       0x0010459c        0x4
 .eh_frame      0x0010459c        0x0 /home/omar/opt/cross/lib/gcc/i686-elf/11.4.0/crtbegin.o
 .eh_frame      0x0010459c        0x4 /home/omar/opt/cross/lib/gcc/i686-elf/11.4.0/crtend.o

data            0x001045a0      0x400
 data           0x001045a0      0x400 src/oboskrnl/CMakeFiles/oboskrnl.dir/descriptors/idt/handlers.asm.o
                0x001045a0                _ZN4obos19g_interruptHandlersE

text            0x001049a0       0x28
 text           0x001049a0       0x28 src/oboskrnl/CMakeFiles/oboskrnl.dir/descriptors/idt/handlers.asm.o
                0x001049a0                isr_common_stub

.gnu.linkonce.r._ZTVN4obos5utils8BitfieldE
                0x001049c8       0x30
 .gnu.linkonce.r._ZTVN4obos5utils8BitfieldE
                0x001049c8       0x30 src/oboskrnl/CMakeFiles/oboskrnl.dir/utils/bitfields.cpp.o
                0x001049c8                _ZTVN4obos5utils8BitfieldE

.gnu.linkonce.r._ZTVN4obos5utils12BitfieldBaseE
                0x001049f8       0x20
 .gnu.linkonce.r._ZTVN4obos5utils12BitfieldBaseE
                0x001049f8       0x20 src/oboskrnl/CMakeFiles/oboskrnl.dir/utils/bitfields.cpp.o
                0x001049f8                _ZTVN4obos5utils12BitfieldBaseE

.gnu.linkonce.r._ZTVN4obos5utils15IntegerBitfieldE
                0x00104a18       0x30
 .gnu.linkonce.r._ZTVN4obos5utils15IntegerBitfieldE
                0x00104a18       0x30 src/oboskrnl/CMakeFiles/oboskrnl.dir/utils/bitfields.cpp.o
                0x00104a18                _ZTVN4obos5utils15IntegerBitfieldE

.rel.dyn        0x00104a48        0x0
 .rel.got       0x00104a48        0x0 /tmp/ccalMsTq.o
 .rel.iplt      0x00104a48        0x0 /tmp/ccalMsTq.o
 .rel.text      0x00104a48        0x0 /tmp/ccalMsTq.o

.data           0x00105000        0x8
 *(.data)
 .data          0x00105000        0x0 /tmp/ccalMsTq.o
 .data          0x00105000        0x4 /home/omar/opt/cross/lib/gcc/i686-elf/11.4.0/crtbegin.o
                0x00105000                __dso_handle
 .data          0x00105004        0x0 /home/omar/opt/cross/lib/gcc/i686-elf/11.4.0/crtend.o
 .data          0x00105004        0x0 /tmp/ccQqHsx9.o
 .data          0x00105004        0x0 src/oboskrnl/CMakeFiles/oboskrnl.dir/boot/kmain.cpp.o
 .data          0x00105004        0x0 src/oboskrnl/CMakeFiles/oboskrnl.dir/console.cpp.o
 .data          0x00105004        0x0 src/oboskrnl/CMakeFiles/oboskrnl.dir/klog.cpp.o
 .data          0x00105004        0x0 src/oboskrnl/CMakeFiles/oboskrnl.dir/inline-asm.cpp.o
 .data          0x00105004        0x0 src/oboskrnl/CMakeFiles/oboskrnl.dir/descriptors/gdt/gdt.cpp.o
 .data          0x00105004        0x0 src/oboskrnl/CMakeFiles/oboskrnl.dir/descriptors/idt/idt.cpp.o
 .data          0x00105004        0x4 src/oboskrnl/CMakeFiles/oboskrnl.dir/memory_manager/physical.cpp.o
 .data          0x00105008        0x0 src/oboskrnl/CMakeFiles/oboskrnl.dir/utils/bitfields.cpp.o
 .data          0x00105008        0x0 src/oboskrnl/CMakeFiles/oboskrnl.dir/descriptors/idt/pic.cpp.o
 .data          0x00105008        0x0 src/oboskrnl/CMakeFiles/oboskrnl.dir/memory_manager/paging/init.cpp.o

.got            0x00105008        0x0
 .got           0x00105008        0x0 /tmp/ccalMsTq.o

.got.plt        0x00105008        0x0
 .got.plt       0x00105008        0x0 /tmp/ccalMsTq.o

.igot.plt       0x00105008        0x0
 .igot.plt      0x00105008        0x0 /tmp/ccalMsTq.o

.ctors          0x00105008       0x14
 .ctors         0x00105008        0x4 /home/omar/opt/cross/lib/gcc/i686-elf/11.4.0/crtbegin.o
 .ctors         0x0010500c        0x4 /home/omar/opt/cross/lib/gcc/i686-elf/11.4.0/crtend.o
 .ctors         0x00105010        0x4 src/oboskrnl/CMakeFiles/oboskrnl.dir/descriptors/gdt/gdt.cpp.o
 .ctors         0x00105014        0x4 src/oboskrnl/CMakeFiles/oboskrnl.dir/descriptors/idt/idt.cpp.o
 .ctors         0x00105018        0x4 src/oboskrnl/CMakeFiles/oboskrnl.dir/memory_manager/paging/init.cpp.o

.dtors          0x0010501c        0x8
 .dtors         0x0010501c        0x4 /home/omar/opt/cross/lib/gcc/i686-elf/11.4.0/crtbegin.o
 .dtors         0x00105020        0x4 /home/omar/opt/cross/lib/gcc/i686-elf/11.4.0/crtend.o
                0x00105020                __DTOR_END__

.tm_clone_table
                0x00105024        0x0
 .tm_clone_table
                0x00105024        0x0 /home/omar/opt/cross/lib/gcc/i686-elf/11.4.0/crtbegin.o
 .tm_clone_table
                0x00105024        0x0 /home/omar/opt/cross/lib/gcc/i686-elf/11.4.0/crtend.o

.bss            0x00106000    0x254f4
 *(COMMON)
 *(.bss)
 .bss           0x00106000        0x0 /tmp/ccalMsTq.o
 .bss           0x00106000       0x20 /home/omar/opt/cross/lib/gcc/i686-elf/11.4.0/crtbegin.o
 .bss           0x00106020        0x0 /home/omar/opt/cross/lib/gcc/i686-elf/11.4.0/crtend.o
 .bss           0x00106020        0x0 /tmp/ccQqHsx9.o
 .bss           0x00106020     0x4000 src/oboskrnl/CMakeFiles/oboskrnl.dir/boot/kernel_bootstrap-i686.asm.o
                0x00106020                _ZN4obos12stack_bottomE
                0x0010a020                _ZN4obos9stack_topE
 .bss           0x0010a020      0xc24 src/oboskrnl/CMakeFiles/oboskrnl.dir/boot/kmain.cpp.o
                0x0010a020                _ZN4obos15g_multibootInfoE
                0x0010a040                __atexitFuncs
                0x0010ac40                __atexitFuncCount
 .bss           0x0010ac44       0x14 src/oboskrnl/CMakeFiles/oboskrnl.dir/console.cpp.o
 .bss           0x0010ac58        0x0 src/oboskrnl/CMakeFiles/oboskrnl.dir/klog.cpp.o
 .bss           0x0010ac58        0x8 src/oboskrnl/CMakeFiles/oboskrnl.dir/inline-asm.cpp.o
 .bss           0x0010ac60       0x48 src/oboskrnl/CMakeFiles/oboskrnl.dir/descriptors/gdt/gdt.cpp.o
 *fill*         0x0010aca8       0x18 
 .bss           0x0010acc0      0x806 src/oboskrnl/CMakeFiles/oboskrnl.dir/descriptors/idt/idt.cpp.o
 *fill*         0x0010b4c6       0x1a 
 .bss           0x0010b4e0    0x2000c src/oboskrnl/CMakeFiles/oboskrnl.dir/memory_manager/physical.cpp.o
                0x0010b4e0                _ZN4obos6memory16g_availablePagesE
                0x0012b4e0                _ZN4obos6memory20g_physicalMemorySizeE
                0x0012b4e4                _ZN4obos6memory34g_physicalMemoryManagerInitializedE
 .bss           0x0012b4ec        0x0 src/oboskrnl/CMakeFiles/oboskrnl.dir/utils/bitfields.cpp.o
 .bss           0x0012b4ec        0x0 src/oboskrnl/CMakeFiles/oboskrnl.dir/descriptors/idt/pic.cpp.o
 .bss           0x0012b4ec        0x8 src/oboskrnl/CMakeFiles/oboskrnl.dir/memory_manager/paging/init.cpp.o
                0x0012b4ec                _ZN4obos6memory15g_pageDirectoryE
                0x00800000                        _ZN4obos6memory8endImageE = 0x800000
                0x01100000                        _ZN4obos6memory9endKernelE = 0x1100000
OUTPUT(/mnt/c/Code/obos/out/oboskrnl elf32-i386)

.comment        0x00000000       0x12
 .comment       0x00000000       0x12 /home/omar/opt/cross/lib/gcc/i686-elf/11.4.0/crtbegin.o
                                 0x13 (size before relaxing)
 .comment       0x00000012       0x13 /home/omar/opt/cross/lib/gcc/i686-elf/11.4.0/crtend.o
 .comment       0x00000012       0x13 src/oboskrnl/CMakeFiles/oboskrnl.dir/boot/kmain.cpp.o
 .comment       0x00000012       0x13 src/oboskrnl/CMakeFiles/oboskrnl.dir/console.cpp.o
 .comment       0x00000012       0x13 src/oboskrnl/CMakeFiles/oboskrnl.dir/klog.cpp.o
 .comment       0x00000012       0x13 src/oboskrnl/CMakeFiles/oboskrnl.dir/inline-asm.cpp.o
 .comment       0x00000012       0x13 src/oboskrnl/CMakeFiles/oboskrnl.dir/descriptors/gdt/gdt.cpp.o
 .comment       0x00000012       0x13 src/oboskrnl/CMakeFiles/oboskrnl.dir/descriptors/idt/idt.cpp.o
 .comment       0x00000012       0x13 src/oboskrnl/CMakeFiles/oboskrnl.dir/memory_manager/physical.cpp.o
 .comment       0x00000012       0x13 src/oboskrnl/CMakeFiles/oboskrnl.dir/utils/bitfields.cpp.o
 .comment       0x00000012       0x13 src/oboskrnl/CMakeFiles/oboskrnl.dir/descriptors/idt/pic.cpp.o
 .comment       0x00000012       0x13 src/oboskrnl/CMakeFiles/oboskrnl.dir/memory_manager/paging/init.cpp.o

.debug_aranges  0x00000000      0x1e0
 .debug_aranges
                0x00000000       0x20 src/oboskrnl/CMakeFiles/oboskrnl.dir/boot/kernel_bootstrap-i686.asm.o
 .debug_aranges
                0x00000020       0x20 src/oboskrnl/CMakeFiles/oboskrnl.dir/descriptors/gdt/gdt.asm.o
 .debug_aranges
                0x00000040       0x20 src/oboskrnl/CMakeFiles/oboskrnl.dir/descriptors/idt/idt.asm.o
 .debug_aranges
                0x00000060       0x20 src/oboskrnl/CMakeFiles/oboskrnl.dir/descriptors/idt/handlers.asm.o
 .debug_aranges
                0x00000080       0x20 src/oboskrnl/CMakeFiles/oboskrnl.dir/memory_manager/paging/init.asm.o
 .debug_aranges
                0x000000a0       0x20 src/oboskrnl/CMakeFiles/oboskrnl.dir/boot/kmain.cpp.o
 .debug_aranges
                0x000000c0       0x20 src/oboskrnl/CMakeFiles/oboskrnl.dir/console.cpp.o
 .debug_aranges
                0x000000e0       0x20 src/oboskrnl/CMakeFiles/oboskrnl.dir/klog.cpp.o
 .debug_aranges
                0x00000100       0x20 src/oboskrnl/CMakeFiles/oboskrnl.dir/inline-asm.cpp.o
 .debug_aranges
                0x00000120       0x20 src/oboskrnl/CMakeFiles/oboskrnl.dir/descriptors/gdt/gdt.cpp.o
 .debug_aranges
                0x00000140       0x20 src/oboskrnl/CMakeFiles/oboskrnl.dir/descriptors/idt/idt.cpp.o
 .debug_aranges
                0x00000160       0x20 src/oboskrnl/CMakeFiles/oboskrnl.dir/memory_manager/physical.cpp.o
 .debug_aranges
                0x00000180       0x20 src/oboskrnl/CMakeFiles/oboskrnl.dir/utils/bitfields.cpp.o
 .debug_aranges
                0x000001a0       0x20 src/oboskrnl/CMakeFiles/oboskrnl.dir/descriptors/idt/pic.cpp.o
 .debug_aranges
                0x000001c0       0x20 src/oboskrnl/CMakeFiles/oboskrnl.dir/memory_manager/paging/init.cpp.o

.debug_pubnames
                0x00000000        0x0
 .debug_pubnames
                0x00000000        0x0 src/oboskrnl/CMakeFiles/oboskrnl.dir/boot/kernel_bootstrap-i686.asm.o
 .debug_pubnames
                0x00000000        0x0 src/oboskrnl/CMakeFiles/oboskrnl.dir/descriptors/gdt/gdt.asm.o
 .debug_pubnames
                0x00000000        0x0 src/oboskrnl/CMakeFiles/oboskrnl.dir/descriptors/idt/idt.asm.o
 .debug_pubnames
                0x00000000        0x0 src/oboskrnl/CMakeFiles/oboskrnl.dir/descriptors/idt/handlers.asm.o
 .debug_pubnames
                0x00000000        0x0 src/oboskrnl/CMakeFiles/oboskrnl.dir/memory_manager/paging/init.asm.o

.debug_info     0x00000000     0x6e1b
 .debug_info    0x00000000       0x71 src/oboskrnl/CMakeFiles/oboskrnl.dir/boot/kernel_bootstrap-i686.asm.o
 .debug_info    0x00000071       0x6a src/oboskrnl/CMakeFiles/oboskrnl.dir/descriptors/gdt/gdt.asm.o
 .debug_info    0x000000db       0x6a src/oboskrnl/CMakeFiles/oboskrnl.dir/descriptors/idt/idt.asm.o
 .debug_info    0x00000145       0x6f src/oboskrnl/CMakeFiles/oboskrnl.dir/descriptors/idt/handlers.asm.o
 .debug_info    0x000001b4       0x71 src/oboskrnl/CMakeFiles/oboskrnl.dir/memory_manager/paging/init.asm.o
 .debug_info    0x00000225     0x14d0 src/oboskrnl/CMakeFiles/oboskrnl.dir/boot/kmain.cpp.o
 .debug_info    0x000016f5      0xf58 src/oboskrnl/CMakeFiles/oboskrnl.dir/console.cpp.o
 .debug_info    0x0000264d      0x329 src/oboskrnl/CMakeFiles/oboskrnl.dir/klog.cpp.o
 .debug_info    0x00002976      0x3f2 src/oboskrnl/CMakeFiles/oboskrnl.dir/inline-asm.cpp.o
 .debug_info    0x00002d68      0x4d1 src/oboskrnl/CMakeFiles/oboskrnl.dir/descriptors/gdt/gdt.cpp.o
 .debug_info    0x00003239      0x81e src/oboskrnl/CMakeFiles/oboskrnl.dir/descriptors/idt/idt.cpp.o
 .debug_info    0x00003a57      0xf4f src/oboskrnl/CMakeFiles/oboskrnl.dir/memory_manager/physical.cpp.o
 .debug_info    0x000049a6      0xdef src/oboskrnl/CMakeFiles/oboskrnl.dir/utils/bitfields.cpp.o
 .debug_info    0x00005795      0xc1f src/oboskrnl/CMakeFiles/oboskrnl.dir/descriptors/idt/pic.cpp.o
 .debug_info    0x000063b4      0xa67 src/oboskrnl/CMakeFiles/oboskrnl.dir/memory_manager/paging/init.cpp.o

.debug_abbrev   0x00000000     0x167f
 .debug_abbrev  0x00000000       0x1b src/oboskrnl/CMakeFiles/oboskrnl.dir/boot/kernel_bootstrap-i686.asm.o
 .debug_abbrev  0x0000001b       0x1b src/oboskrnl/CMakeFiles/oboskrnl.dir/descriptors/gdt/gdt.asm.o
 .debug_abbrev  0x00000036       0x1b src/oboskrnl/CMakeFiles/oboskrnl.dir/descriptors/idt/idt.asm.o
 .debug_abbrev  0x00000051       0x1b src/oboskrnl/CMakeFiles/oboskrnl.dir/descriptors/idt/handlers.asm.o
 .debug_abbrev  0x0000006c       0x1b src/oboskrnl/CMakeFiles/oboskrnl.dir/memory_manager/paging/init.asm.o
 .debug_abbrev  0x00000087      0x385 src/oboskrnl/CMakeFiles/oboskrnl.dir/boot/kmain.cpp.o
 .debug_abbrev  0x0000040c      0x215 src/oboskrnl/CMakeFiles/oboskrnl.dir/console.cpp.o
 .debug_abbrev  0x00000621       0xbe src/oboskrnl/CMakeFiles/oboskrnl.dir/klog.cpp.o
 .debug_abbrev  0x000006df      0x12f src/oboskrnl/CMakeFiles/oboskrnl.dir/inline-asm.cpp.o
 .debug_abbrev  0x0000080e      0x1ab src/oboskrnl/CMakeFiles/oboskrnl.dir/descriptors/gdt/gdt.cpp.o
 .debug_abbrev  0x000009b9      0x1f0 src/oboskrnl/CMakeFiles/oboskrnl.dir/descriptors/idt/idt.cpp.o
 .debug_abbrev  0x00000ba9      0x247 src/oboskrnl/CMakeFiles/oboskrnl.dir/memory_manager/physical.cpp.o
 .debug_abbrev  0x00000df0      0x327 src/oboskrnl/CMakeFiles/oboskrnl.dir/utils/bitfields.cpp.o
 .debug_abbrev  0x00001117      0x21a src/oboskrnl/CMakeFiles/oboskrnl.dir/descriptors/idt/pic.cpp.o
 .debug_abbrev  0x00001331      0x34e src/oboskrnl/CMakeFiles/oboskrnl.dir/memory_manager/paging/init.cpp.o

.debug_line     0x00000000     0x3eed
 .debug_line    0x00000000       0x79 src/oboskrnl/CMakeFiles/oboskrnl.dir/boot/kernel_bootstrap-i686.asm.o
 .debug_line    0x00000079       0x71 src/oboskrnl/CMakeFiles/oboskrnl.dir/descriptors/gdt/gdt.asm.o
 .debug_line    0x000000ea       0x6a src/oboskrnl/CMakeFiles/oboskrnl.dir/descriptors/idt/idt.asm.o
 .debug_line    0x00000154      0x131 src/oboskrnl/CMakeFiles/oboskrnl.dir/descriptors/idt/handlers.asm.o
 .debug_line    0x00000285       0x7c src/oboskrnl/CMakeFiles/oboskrnl.dir/memory_manager/paging/init.asm.o
 .debug_line    0x00000301      0x570 src/oboskrnl/CMakeFiles/oboskrnl.dir/boot/kmain.cpp.o
 .debug_line    0x00000871      0x8e9 src/oboskrnl/CMakeFiles/oboskrnl.dir/console.cpp.o
 .debug_line    0x0000115a      0x100 src/oboskrnl/CMakeFiles/oboskrnl.dir/klog.cpp.o
 .debug_line    0x0000125a      0xcc9 src/oboskrnl/CMakeFiles/oboskrnl.dir/inline-asm.cpp.o
 .debug_line    0x00001f23      0x26b src/oboskrnl/CMakeFiles/oboskrnl.dir/descriptors/gdt/gdt.cpp.o
 .debug_line    0x0000218e      0x3d4 src/oboskrnl/CMakeFiles/oboskrnl.dir/descriptors/idt/idt.cpp.o
 .debug_line    0x00002562      0xa43 src/oboskrnl/CMakeFiles/oboskrnl.dir/memory_manager/physical.cpp.o
 .debug_line    0x00002fa5      0x46f src/oboskrnl/CMakeFiles/oboskrnl.dir/utils/bitfields.cpp.o
 .debug_line    0x00003414      0x5df src/oboskrnl/CMakeFiles/oboskrnl.dir/descriptors/idt/pic.cpp.o
 .debug_line    0x000039f3      0x4fa src/oboskrnl/CMakeFiles/oboskrnl.dir/memory_manager/paging/init.cpp.o

.debug_frame    0x00000000     0x10dc
 .debug_frame   0x00000000        0x0 src/oboskrnl/CMakeFiles/oboskrnl.dir/boot/kernel_bootstrap-i686.asm.o
 .debug_frame   0x00000000        0x0 src/oboskrnl/CMakeFiles/oboskrnl.dir/descriptors/gdt/gdt.asm.o
 .debug_frame   0x00000000        0x0 src/oboskrnl/CMakeFiles/oboskrnl.dir/descriptors/idt/idt.asm.o
 .debug_frame   0x00000000        0x0 src/oboskrnl/CMakeFiles/oboskrnl.dir/descriptors/idt/handlers.asm.o
 .debug_frame   0x00000000        0x0 src/oboskrnl/CMakeFiles/oboskrnl.dir/memory_manager/paging/init.asm.o
 .debug_frame   0x00000000      0x148 src/oboskrnl/CMakeFiles/oboskrnl.dir/boot/kmain.cpp.o
 .debug_frame   0x00000148      0x218 src/oboskrnl/CMakeFiles/oboskrnl.dir/console.cpp.o
 .debug_frame   0x00000360       0x40 src/oboskrnl/CMakeFiles/oboskrnl.dir/klog.cpp.o
 .debug_frame   0x000003a0      0x1f8 src/oboskrnl/CMakeFiles/oboskrnl.dir/inline-asm.cpp.o
 .debug_frame   0x00000598       0xc4 src/oboskrnl/CMakeFiles/oboskrnl.dir/descriptors/gdt/gdt.cpp.o
 .debug_frame   0x0000065c       0xf0 src/oboskrnl/CMakeFiles/oboskrnl.dir/descriptors/idt/idt.cpp.o
 .debug_frame   0x0000074c      0x134 src/oboskrnl/CMakeFiles/oboskrnl.dir/memory_manager/physical.cpp.o
 .debug_frame   0x00000880      0x3b4 src/oboskrnl/CMakeFiles/oboskrnl.dir/utils/bitfields.cpp.o
 .debug_frame   0x00000c34      0x2d4 src/oboskrnl/CMakeFiles/oboskrnl.dir/descriptors/idt/pic.cpp.o
 .debug_frame   0x00000f08      0x1d4 src/oboskrnl/CMakeFiles/oboskrnl.dir/memory_manager/paging/init.cpp.o

.debug_loc      0x00000000        0x0
 .debug_loc     0x00000000        0x0 src/oboskrnl/CMakeFiles/oboskrnl.dir/boot/kernel_bootstrap-i686.asm.o
 .debug_loc     0x00000000        0x0 src/oboskrnl/CMakeFiles/oboskrnl.dir/descriptors/gdt/gdt.asm.o
 .debug_loc     0x00000000        0x0 src/oboskrnl/CMakeFiles/oboskrnl.dir/descriptors/idt/idt.asm.o
 .debug_loc     0x00000000        0x0 src/oboskrnl/CMakeFiles/oboskrnl.dir/descriptors/idt/handlers.asm.o
 .debug_loc     0x00000000        0x0 src/oboskrnl/CMakeFiles/oboskrnl.dir/memory_manager/paging/init.asm.o

.debug_str      0x00000000       0xfa
 .debug_str     0x00000000        0x0 src/oboskrnl/CMakeFiles/oboskrnl.dir/boot/kmain.cpp.o
 .debug_str     0x00000000       0x16 src/oboskrnl/CMakeFiles/oboskrnl.dir/console.cpp.o
 .debug_str     0x00000016        0x0 src/oboskrnl/CMakeFiles/oboskrnl.dir/klog.cpp.o
 .debug_str     0x00000016        0x0 src/oboskrnl/CMakeFiles/oboskrnl.dir/inline-asm.cpp.o
 .debug_str     0x00000016        0x9 src/oboskrnl/CMakeFiles/oboskrnl.dir/descriptors/gdt/gdt.cpp.o
 .debug_str     0x0000001f        0x9 src/oboskrnl/CMakeFiles/oboskrnl.dir/descriptors/idt/idt.cpp.o
 .debug_str     0x00000028        0xe src/oboskrnl/CMakeFiles/oboskrnl.dir/memory_manager/physical.cpp.o
 .debug_str     0x00000036       0x5e src/oboskrnl/CMakeFiles/oboskrnl.dir/utils/bitfields.cpp.o
 .debug_str     0x00000094       0x39 src/oboskrnl/CMakeFiles/oboskrnl.dir/descriptors/idt/pic.cpp.o
 .debug_str     0x000000cd       0x2d src/oboskrnl/CMakeFiles/oboskrnl.dir/memory_manager/paging/init.cpp.o

.debug_rnglists
                0x00000000       0x32
 .debug_rnglists
                0x00000000       0x32 src/oboskrnl/CMakeFiles/oboskrnl.dir/console.cpp.o
