
Memory Configuration

Name             Origin             Length             Attributes
*default*        0x00000000         0xffffffff

Linker script and memory map

LOAD kernel/CMakeFiles/oboskrnl.dir/kernel_bootstrap-i686.asm.o
LOAD kernel/CMakeFiles/oboskrnl.dir/gdtUpdate.asm.o
LOAD kernel/CMakeFiles/oboskrnl.dir/paging.asm.o
LOAD kernel/CMakeFiles/oboskrnl.dir/virtual8086.asm.o
LOAD kernel/CMakeFiles/oboskrnl.dir/multitasking.asm.o
LOAD kernel/CMakeFiles/oboskrnl.dir/kmain.c.o
LOAD kernel/CMakeFiles/oboskrnl.dir/acpi.c.o
LOAD kernel/CMakeFiles/oboskrnl.dir/paging.c.o
LOAD kernel/CMakeFiles/oboskrnl.dir/terminal.c.o
LOAD kernel/CMakeFiles/oboskrnl.dir/inline-asm.c.o
LOAD kernel/CMakeFiles/oboskrnl.dir/klog.c.o
LOAD kernel/CMakeFiles/oboskrnl.dir/kserial.c.o
LOAD kernel/CMakeFiles/oboskrnl.dir/interrupts.c.o
LOAD kernel/CMakeFiles/oboskrnl.dir/gdt.c.o
LOAD kernel/CMakeFiles/oboskrnl.dir/keyboard.c.o
LOAD kernel/CMakeFiles/oboskrnl.dir/hashTable.c.o
LOAD kernel/CMakeFiles/oboskrnl.dir/liballoc/liballoc_1_1.c.o
LOAD kernel/CMakeFiles/oboskrnl.dir/bitfields.c.o
LOAD kernel/CMakeFiles/oboskrnl.dir/multitasking.c.o
LOAD kernel/CMakeFiles/oboskrnl.dir/error.c.o
LOAD kernel/CMakeFiles/oboskrnl.dir/mutexes.c.o
LOAD kernel/CMakeFiles/oboskrnl.dir/syscall.c.o
LOAD kernel/CMakeFiles/oboskrnl.dir/list/list.c.o
LOAD kernel/CMakeFiles/oboskrnl.dir/list/list_node.c.o
LOAD kernel/CMakeFiles/oboskrnl.dir/list/list_iterator.c.o
LOAD kernel/CMakeFiles/oboskrnl.dir/initrd.c.o
                0x00100000                        . = 0x100000

.text           0x00100000     0x8a70
 *(.multiboot)
 .multiboot     0x00100000       0x30 kernel/CMakeFiles/oboskrnl.dir/kernel_bootstrap-i686.asm.o
 *(.text)
 .text          0x00100030       0x18 kernel/CMakeFiles/oboskrnl.dir/kernel_bootstrap-i686.asm.o
                0x00100030                _start
                0x00100044                idleTask
 *fill*         0x00100048        0x8 
 .text          0x00100050      0x239 kernel/CMakeFiles/oboskrnl.dir/gdtUpdate.asm.o
                0x00100056                gdtUpdate
                0x00100098                isr0
                0x0010009f                isr1
                0x001000a6                isr2
                0x001000ad                isr3
                0x001000b4                isr4
                0x001000bb                isr5
                0x001000c2                isr6
                0x001000c9                isr7
                0x001000d0                isr8
                0x001000d5                isr9
                0x001000dc                isr10
                0x001000e1                isr11
                0x001000e6                isr12
                0x001000eb                isr13
                0x001000f0                isr14
                0x001000f8                isr15
                0x00100102                isr16
                0x0010010c                isr17
                0x00100114                isr18
                0x0010011e                isr19
                0x00100128                isr20
                0x00100132                isr21
                0x0010013a                isr22
                0x00100144                isr23
                0x0010014e                isr24
                0x00100158                isr25
                0x00100162                isr26
                0x0010016c                isr27
                0x00100176                isr28
                0x00100180                isr29
                0x0010018a                isr30
                0x00100194                isr31
                0x0010019e                isr32
                0x001001a8                isr33
                0x001001b2                isr34
                0x001001bc                isr35
                0x001001c6                isr36
                0x001001d0                isr37
                0x001001da                isr38
                0x001001e4                isr39
                0x001001ee                isr40
                0x001001f8                isr41
                0x00100202                isr42
                0x0010020c                isr43
                0x00100216                isr44
                0x00100220                isr45
                0x0010022a                isr46
                0x00100234                isr47
                0x0010023e                isr48
                0x00100248                isr64
                0x00100281                idtUpdate
 *fill*         0x00100289        0x7 
 .text          0x00100290       0x24 kernel/CMakeFiles/oboskrnl.dir/paging.asm.o
                0x00100290                loadPageDirectory
                0x0010029e                enablePaging
                0x001002b0                getCR2
 *fill*         0x001002b4        0xc 
 .text          0x001002c0       0x17 kernel/CMakeFiles/oboskrnl.dir/virtual8086.asm.o
                0x001002c0                enter_v8086
 *fill*         0x001002d7        0x9 
 .text          0x001002e0       0x40 kernel/CMakeFiles/oboskrnl.dir/multitasking.asm.o
                0x001002e0                switchTaskToAsm
                0x00100315                OBOS_ThreadEntryPoint
 .text          0x00100320      0x6b7 kernel/CMakeFiles/oboskrnl.dir/kmain.c.o
                0x00100538                pageFaultHandler
                0x001006e1                testThread
                0x00100722                kmain_thread
                0x001007b0                kmain
 .text          0x001009d7      0x53c kernel/CMakeFiles/oboskrnl.dir/acpi.c.o
                0x001009d7                memcmp
                0x00100a48                acpiCheckRSDPtr
                0x00100ab0                acpiGetRSDPtr
                0x00100b45                acpiCheckHeader
                0x00100bac                acpiEnable
                0x00100bcd                initAcpi
                0x00100e59                acpiPowerOff
 .text          0x00100f13     0x1225 kernel/CMakeFiles/oboskrnl.dir/paging.c.o
                0x00100f13                itoa
                0x001012d8                kmeminit
                0x0010156e                kfindmemblock
                0x0010177b                memset
                0x001017b9                kInitializePaging
                0x00101c1c                liballoc_lock
                0x00101c57                liballoc_unlock
                0x00101c92                kalloc_pages
                0x00101f8e                kfree_pages
                0x001020d9                reloadPages
                0x001020ec                liballoc_alloc
                0x0010211f                liballoc_free
 .text          0x00102138      0x83e kernel/CMakeFiles/oboskrnl.dir/terminal.c.o
                0x00102138                irq0
                0x001021c6                beep
                0x00102311                SetTerminalCursorPosition
                0x00102398                GetTerminalCursorPosition
                0x001023c3                InitializeTeriminal
                0x001024f3                TerminalSetColor
                0x0010250b                TerminalGetColor
                0x00102632                TerminalOutputCharacter
                0x001028b7                TerminalOutputCharacterAt
                0x001028fd                TerminalOutput
                0x00102936                TerminalOutputString
 .text          0x00102976      0x7c7 kernel/CMakeFiles/oboskrnl.dir/inline-asm.c.o
                0x00102976                outb
                0x00102997                outw
                0x001029b8                inb
                0x001029d5                inw
                0x001029f4                io_wait
                0x00102a09                cli
                0x00102a1d                sti
                0x00102a31                hlt
                0x00102a38                _int
                0x001030f0                EnterKernelSection
                0x0010310b                LeaveKernelSection
 .text          0x0010313d      0xd40 kernel/CMakeFiles/oboskrnl.dir/klog.c.o
                0x0010337a                itoa_unsigned
                0x001033f1                ftoa
                0x00103a42                setOnKernelPanic
                0x00103a50                resetOnKernelPanic
                0x00103b53                printStackTrace
                0x00103be6                kpanic
                0x00103c81                kassert
                0x00103ca7                printf
                0x00103cd6                vprintf
                0x00103cf7                klog_info
                0x00103d79                klog_warning
                0x00103dfe                klog_error
 .text          0x00103e7d      0xa6d kernel/CMakeFiles/oboskrnl.dir/kserial.c.o
                0x00104290                kinitserialports
                0x00104357                IsSerialPortInitialized
                0x00104396                GetSerialPortError
                0x001043cd                ClearSerialPortError
                0x00104404                InitSerialPort
                0x00104712                WriteSerialPort
                0x001047b2                ReadSerialPort
 .text          0x001048ea      0xab3 kernel/CMakeFiles/oboskrnl.dir/interrupts.c.o
                0x001048ea                defaultPicInterruptCallback
                0x0010491f                defaultExceptionHandler
                0x001049af                defaultInterruptHandler
                0x00104ade                initPIC
                0x00104c29                initIDT
                0x001050ea                setIdtEntry
                0x00105133                initInterrupts
                0x00105189                enablePICInterrupt
                0x001051f3                disablePICInterrupt
                0x0010525b                setPICInterruptHandlers
                0x001052ab                resetPICInterruptHandlers
                0x001052fc                setExceptionHandlers
                0x0010534c                resetExceptionHandlers
 .text          0x0010539d      0x13e kernel/CMakeFiles/oboskrnl.dir/gdt.c.o
                0x0010543b                initGdt
 .text          0x001054db      0x24d kernel/CMakeFiles/oboskrnl.dir/keyboard.c.o
                0x00105514                keyboardIrqHandler
                0x00105537                kKeyboardInit
 .text          0x00105728      0x66b kernel/CMakeFiles/oboskrnl.dir/hashTable.c.o
                0x00105728                hash_table_create
                0x001057a2                hash_table_emplace
                0x00105aa9                hash_table_lookup
                0x00105be8                hash_table_contains
                0x00105ceb                hash_table_destroy
 .text          0x00105d93      0xc40 kernel/CMakeFiles/oboskrnl.dir/liballoc/liballoc_1_1.c.o
                0x00105f39                kmalloc
                0x001065c5                kfree
                0x0010683f                kcalloc
                0x00106880                krealloc
 .text          0x001069d3      0x129 kernel/CMakeFiles/oboskrnl.dir/bitfields.c.o
                0x001069d3                getBitFromBitfield
                0x001069f8                setBitInBitfield
                0x00106a1c                clearBitInBitfield
                0x00106a40                getBitFromBitfieldBitmask
                0x00106a51                setBitInBitfieldBitmask
                0x00106a66                clearBitInBitfieldBitmask
                0x00106a7b                generateBitfield
                0x00106ac1                generateBitfieldBitmask
 .text          0x00106afc     0x1332 kernel/CMakeFiles/oboskrnl.dir/multitasking.c.o
                0x00107083                kinitmultitasking
                0x0010729d                MakeThread
                0x00107471                GetHandleTid
                0x001074cf                TerminateThread
                0x001075a3                GetThreadExitCode
                0x0010763c                GetThreadStatus
                0x0010769f                ResumeThread
                0x0010774e                PauseThread
                0x001077ff                DestroyThread
                0x00107994                GetTid
                0x001079a0                GetThreadHandle
                0x001079aa                YieldExecution
                0x001079d1                Sleep
                0x00107a2b                ExitThread
                0x00107b2c                WaitForThreads
                0x00107c89                WaitForThreadsVariadic
                0x00107d02                ksetblockstate
                0x00107d69                kclearblockstate
                0x00107dce                ksetblockcallback
 .text          0x00107e2e       0x18 kernel/CMakeFiles/oboskrnl.dir/error.c.o
                0x00107e2e                GetLastError
                0x00107e38                SetLastError
 .text          0x00107e46      0x407 kernel/CMakeFiles/oboskrnl.dir/mutexes.c.o
                0x00107e46                MakeMutex
                0x00107f92                LockMutex
                0x00108075                UnlockMutex
                0x00108135                DestroyMutex
 .text          0x0010824d       0x70 kernel/CMakeFiles/oboskrnl.dir/syscall.c.o
                0x0010824d                syscall_handler
 .text          0x001082bd      0x48d kernel/CMakeFiles/oboskrnl.dir/list/list.c.o
                0x001082bd                list_new
                0x00108316                list_destroy
                0x00108389                list_rpush
                0x0010840c                list_rpop
                0x0010848c                list_lpop
                0x0010850a                list_lpush
                0x00108589                list_find
                0x00108627                list_at
                0x001086bd                list_remove
 .text          0x0010874a       0x44 kernel/CMakeFiles/oboskrnl.dir/list/list_node.c.o
                0x0010874a                list_node_new
 .text          0x0010878e       0xbb kernel/CMakeFiles/oboskrnl.dir/list/list_iterator.c.o
                0x0010878e                list_iterator_new
                0x001087bd                list_iterator_new_from_node
                0x001087f6                list_iterator_next
                0x0010882b                list_iterator_destroy
 .text          0x00108849      0x227 kernel/CMakeFiles/oboskrnl.dir/initrd.c.o
                0x001089b2                InitializeInitRD
                0x001089c0                ReadInitRDFile
                0x00108a70                        __etext = .

.iplt           0x00108a70        0x0
 .iplt          0x00108a70        0x0 kernel/CMakeFiles/oboskrnl.dir/kernel_bootstrap-i686.asm.o

.rodata         0x00109000      0xc8a
 *(.rodata)
 .rodata        0x00109000      0x35b kernel/CMakeFiles/oboskrnl.dir/kmain.c.o
 *fill*         0x0010935b        0x1 
 .rodata        0x0010935c       0xdb kernel/CMakeFiles/oboskrnl.dir/acpi.c.o
 *fill*         0x00109437        0x1 
 .rodata        0x00109438       0x59 kernel/CMakeFiles/oboskrnl.dir/paging.c.o
 *fill*         0x00109491        0x3 
 .rodata        0x00109494      0x400 kernel/CMakeFiles/oboskrnl.dir/inline-asm.c.o
 *fill*         0x00109894        0xc 
 .rodata        0x001098a0      0x298 kernel/CMakeFiles/oboskrnl.dir/klog.c.o
 .rodata        0x00109b38      0x119 kernel/CMakeFiles/oboskrnl.dir/interrupts.c.o
 *fill*         0x00109c51        0x3 
 .rodata        0x00109c54       0x2a kernel/CMakeFiles/oboskrnl.dir/keyboard.c.o
 *fill*         0x00109c7e        0x2 
 .rodata        0x00109c80        0x4 kernel/CMakeFiles/oboskrnl.dir/hashTable.c.o
 .rodata        0x00109c84        0x6 kernel/CMakeFiles/oboskrnl.dir/initrd.c.o

.rel.dyn        0x00109c8c        0x0
 .rel.got       0x00109c8c        0x0 kernel/CMakeFiles/oboskrnl.dir/kernel_bootstrap-i686.asm.o
 .rel.iplt      0x00109c8c        0x0 kernel/CMakeFiles/oboskrnl.dir/kernel_bootstrap-i686.asm.o
 .rel.text      0x00109c8c        0x0 kernel/CMakeFiles/oboskrnl.dir/kernel_bootstrap-i686.asm.o

.data           0x0010a000       0x34
 *(.data)
 .data          0x0010a000        0xc kernel/CMakeFiles/oboskrnl.dir/kernel_bootstrap-i686.asm.o
 .data          0x0010a00c        0x4 kernel/CMakeFiles/oboskrnl.dir/gdtUpdate.asm.o
 .data          0x0010a010        0x8 kernel/CMakeFiles/oboskrnl.dir/multitasking.asm.o
 .data          0x0010a018        0x0 kernel/CMakeFiles/oboskrnl.dir/kmain.c.o
 .data          0x0010a018        0x0 kernel/CMakeFiles/oboskrnl.dir/acpi.c.o
 .data          0x0010a018        0x4 kernel/CMakeFiles/oboskrnl.dir/paging.c.o
 .data          0x0010a01c        0x8 kernel/CMakeFiles/oboskrnl.dir/terminal.c.o
 .data          0x0010a024        0x0 kernel/CMakeFiles/oboskrnl.dir/inline-asm.c.o
 .data          0x0010a024        0x4 kernel/CMakeFiles/oboskrnl.dir/klog.c.o
 .data          0x0010a028        0x0 kernel/CMakeFiles/oboskrnl.dir/kserial.c.o
 .data          0x0010a028        0x0 kernel/CMakeFiles/oboskrnl.dir/interrupts.c.o
 .data          0x0010a028        0x0 kernel/CMakeFiles/oboskrnl.dir/gdt.c.o
 .data          0x0010a028        0x0 kernel/CMakeFiles/oboskrnl.dir/keyboard.c.o
 .data          0x0010a028        0x0 kernel/CMakeFiles/oboskrnl.dir/hashTable.c.o
 .data          0x0010a028        0x8 kernel/CMakeFiles/oboskrnl.dir/liballoc/liballoc_1_1.c.o
 .data          0x0010a030        0x0 kernel/CMakeFiles/oboskrnl.dir/bitfields.c.o
 .data          0x0010a030        0x4 kernel/CMakeFiles/oboskrnl.dir/multitasking.c.o
 .data          0x0010a034        0x0 kernel/CMakeFiles/oboskrnl.dir/error.c.o
 .data          0x0010a034        0x0 kernel/CMakeFiles/oboskrnl.dir/mutexes.c.o
 .data          0x0010a034        0x0 kernel/CMakeFiles/oboskrnl.dir/syscall.c.o
 .data          0x0010a034        0x0 kernel/CMakeFiles/oboskrnl.dir/list/list.c.o
 .data          0x0010a034        0x0 kernel/CMakeFiles/oboskrnl.dir/list/list_node.c.o
 .data          0x0010a034        0x0 kernel/CMakeFiles/oboskrnl.dir/list/list_iterator.c.o
 .data          0x0010a034        0x0 kernel/CMakeFiles/oboskrnl.dir/initrd.c.o

.got            0x0010a034        0x0
 .got           0x0010a034        0x0 kernel/CMakeFiles/oboskrnl.dir/kernel_bootstrap-i686.asm.o

.got.plt        0x0010a034        0x0
 .got.plt       0x0010a034        0x0 kernel/CMakeFiles/oboskrnl.dir/kernel_bootstrap-i686.asm.o

.igot.plt       0x0010a034        0x0
 .igot.plt      0x0010a034        0x0 kernel/CMakeFiles/oboskrnl.dir/kernel_bootstrap-i686.asm.o

.bss            0x0010b000   0x42baa0
 *(COMMON)
 *(.bss)
 .bss           0x0010b000     0x8000 kernel/CMakeFiles/oboskrnl.dir/kernel_bootstrap-i686.asm.o
                0x0010b000                stack_bottom
                0x0010f000                stack_top
                0x0010f000                stack_bottom_thread
                0x00113000                stack_top_thread
 .bss           0x00113000       0x10 kernel/CMakeFiles/oboskrnl.dir/kmain.c.o
                0x00113000                interruptsWork
                0x00113004                g_multibootInfo
 .bss           0x00113010       0x19 kernel/CMakeFiles/oboskrnl.dir/acpi.c.o
                0x00113010                SMI_CMD
                0x00113014                ACPI_ENABLE
                0x00113015                ACPI_DISABLE
                0x00113018                PM1a_CNT
                0x0011301c                PM1b_CNT
                0x00113020                SLP_TYPa
                0x00113022                SLP_TYPb
                0x00113024                SLP_EN
                0x00113026                SCI_EN
                0x00113028                PM1_CNT_LEN
 *fill*         0x00113029      0xfd7 
 .bss           0x00114000   0x422000 kernel/CMakeFiles/oboskrnl.dir/paging.c.o
                0x00114000                g_kMemoryTable
                0x00114004                g_kMemoryTableBlockSize
                0x00114008                g_kMemoryTableSize
                0x0011400c                g_kPhysicalMemorySize
                0x00114010                g_kAvailablePhysicalMemorySize
                0x00114014                g_kSystemPhysicalMemorySize
                0x00115000                g_pageDirectory
                0x00116000                g_pageTable
 .bss           0x00536000       0x19 kernel/CMakeFiles/oboskrnl.dir/terminal.c.o
 *fill*         0x00536019        0x3 
 .bss           0x0053601c        0x8 kernel/CMakeFiles/oboskrnl.dir/inline-asm.c.o
 .bss           0x00536024        0x8 kernel/CMakeFiles/oboskrnl.dir/klog.c.o
 *fill*         0x0053602c       0x14 
 .bss           0x00536040       0xb0 kernel/CMakeFiles/oboskrnl.dir/kserial.c.o
                0x00536040                zeroedSerialPortData
 *fill*         0x005360f0       0x10 
 .bss           0x00536100      0x8c6 kernel/CMakeFiles/oboskrnl.dir/interrupts.c.o
 *fill*         0x005369c6       0x1a 
 .bss           0x005369e0       0x48 kernel/CMakeFiles/oboskrnl.dir/gdt.c.o
 .bss           0x00536a28        0xc kernel/CMakeFiles/oboskrnl.dir/keyboard.c.o
                0x00536a28                keyboardFlags
 .bss           0x00536a34        0x0 kernel/CMakeFiles/oboskrnl.dir/hashTable.c.o
 *fill*         0x00536a34        0x4 
 .bss           0x00536a38       0x30 kernel/CMakeFiles/oboskrnl.dir/liballoc/liballoc_1_1.c.o
 .bss           0x00536a68        0x0 kernel/CMakeFiles/oboskrnl.dir/bitfields.c.o
 .bss           0x00536a68       0x28 kernel/CMakeFiles/oboskrnl.dir/multitasking.c.o
 .bss           0x00536a90        0x4 kernel/CMakeFiles/oboskrnl.dir/error.c.o
                0x00536a90                g_kErrorCode
 .bss           0x00536a94        0x8 kernel/CMakeFiles/oboskrnl.dir/mutexes.c.o
 .bss           0x00536a9c        0x0 kernel/CMakeFiles/oboskrnl.dir/syscall.c.o
 .bss           0x00536a9c        0x0 kernel/CMakeFiles/oboskrnl.dir/list/list.c.o
 .bss           0x00536a9c        0x0 kernel/CMakeFiles/oboskrnl.dir/list/list_node.c.o
 .bss           0x00536a9c        0x0 kernel/CMakeFiles/oboskrnl.dir/list/list_iterator.c.o
 .bss           0x00536a9c        0x4 kernel/CMakeFiles/oboskrnl.dir/initrd.c.o
                0x00536aa0                        endKernel = .
OUTPUT(/mnt/c/Users/omark/Documents/obos/out/oboskrnl elf32-i386)

.debug_aranges  0x00000000      0x340
 .debug_aranges
                0x00000000       0x20 kernel/CMakeFiles/oboskrnl.dir/kernel_bootstrap-i686.asm.o
 .debug_aranges
                0x00000020       0x20 kernel/CMakeFiles/oboskrnl.dir/gdtUpdate.asm.o
 .debug_aranges
                0x00000040       0x20 kernel/CMakeFiles/oboskrnl.dir/paging.asm.o
 .debug_aranges
                0x00000060       0x20 kernel/CMakeFiles/oboskrnl.dir/virtual8086.asm.o
 .debug_aranges
                0x00000080       0x20 kernel/CMakeFiles/oboskrnl.dir/multitasking.asm.o
 .debug_aranges
                0x000000a0       0x20 kernel/CMakeFiles/oboskrnl.dir/kmain.c.o
 .debug_aranges
                0x000000c0       0x20 kernel/CMakeFiles/oboskrnl.dir/acpi.c.o
 .debug_aranges
                0x000000e0       0x20 kernel/CMakeFiles/oboskrnl.dir/paging.c.o
 .debug_aranges
                0x00000100       0x20 kernel/CMakeFiles/oboskrnl.dir/terminal.c.o
 .debug_aranges
                0x00000120       0x20 kernel/CMakeFiles/oboskrnl.dir/inline-asm.c.o
 .debug_aranges
                0x00000140       0x20 kernel/CMakeFiles/oboskrnl.dir/klog.c.o
 .debug_aranges
                0x00000160       0x20 kernel/CMakeFiles/oboskrnl.dir/kserial.c.o
 .debug_aranges
                0x00000180       0x20 kernel/CMakeFiles/oboskrnl.dir/interrupts.c.o
 .debug_aranges
                0x000001a0       0x20 kernel/CMakeFiles/oboskrnl.dir/gdt.c.o
 .debug_aranges
                0x000001c0       0x20 kernel/CMakeFiles/oboskrnl.dir/keyboard.c.o
 .debug_aranges
                0x000001e0       0x20 kernel/CMakeFiles/oboskrnl.dir/hashTable.c.o
 .debug_aranges
                0x00000200       0x20 kernel/CMakeFiles/oboskrnl.dir/liballoc/liballoc_1_1.c.o
 .debug_aranges
                0x00000220       0x20 kernel/CMakeFiles/oboskrnl.dir/bitfields.c.o
 .debug_aranges
                0x00000240       0x20 kernel/CMakeFiles/oboskrnl.dir/multitasking.c.o
 .debug_aranges
                0x00000260       0x20 kernel/CMakeFiles/oboskrnl.dir/error.c.o
 .debug_aranges
                0x00000280       0x20 kernel/CMakeFiles/oboskrnl.dir/mutexes.c.o
 .debug_aranges
                0x000002a0       0x20 kernel/CMakeFiles/oboskrnl.dir/syscall.c.o
 .debug_aranges
                0x000002c0       0x20 kernel/CMakeFiles/oboskrnl.dir/list/list.c.o
 .debug_aranges
                0x000002e0       0x20 kernel/CMakeFiles/oboskrnl.dir/list/list_node.c.o
 .debug_aranges
                0x00000300       0x20 kernel/CMakeFiles/oboskrnl.dir/list/list_iterator.c.o
 .debug_aranges
                0x00000320       0x20 kernel/CMakeFiles/oboskrnl.dir/initrd.c.o

.debug_pubnames
                0x00000000        0x0
 .debug_pubnames
                0x00000000        0x0 kernel/CMakeFiles/oboskrnl.dir/kernel_bootstrap-i686.asm.o
 .debug_pubnames
                0x00000000        0x0 kernel/CMakeFiles/oboskrnl.dir/gdtUpdate.asm.o
 .debug_pubnames
                0x00000000        0x0 kernel/CMakeFiles/oboskrnl.dir/paging.asm.o
 .debug_pubnames
                0x00000000        0x0 kernel/CMakeFiles/oboskrnl.dir/virtual8086.asm.o
 .debug_pubnames
                0x00000000        0x0 kernel/CMakeFiles/oboskrnl.dir/multitasking.asm.o

.debug_info     0x00000000     0xc9c0
 .debug_info    0x00000000       0x66 kernel/CMakeFiles/oboskrnl.dir/kernel_bootstrap-i686.asm.o
 .debug_info    0x00000066       0x5a kernel/CMakeFiles/oboskrnl.dir/gdtUpdate.asm.o
 .debug_info    0x000000c0       0x57 kernel/CMakeFiles/oboskrnl.dir/paging.asm.o
 .debug_info    0x00000117       0x5c kernel/CMakeFiles/oboskrnl.dir/virtual8086.asm.o
 .debug_info    0x00000173       0x5d kernel/CMakeFiles/oboskrnl.dir/multitasking.asm.o
 .debug_info    0x000001d0     0x15cb kernel/CMakeFiles/oboskrnl.dir/kmain.c.o
 .debug_info    0x0000179b      0x89d kernel/CMakeFiles/oboskrnl.dir/acpi.c.o
 .debug_info    0x00002038     0x16f9 kernel/CMakeFiles/oboskrnl.dir/paging.c.o
 .debug_info    0x00003731      0xfb0 kernel/CMakeFiles/oboskrnl.dir/terminal.c.o
 .debug_info    0x000046e1      0x3c3 kernel/CMakeFiles/oboskrnl.dir/inline-asm.c.o
 .debug_info    0x00004aa4     0x1251 kernel/CMakeFiles/oboskrnl.dir/klog.c.o
 .debug_info    0x00005cf5      0xcd8 kernel/CMakeFiles/oboskrnl.dir/kserial.c.o
 .debug_info    0x000069cd     0x1034 kernel/CMakeFiles/oboskrnl.dir/interrupts.c.o
 .debug_info    0x00007a01      0x3c4 kernel/CMakeFiles/oboskrnl.dir/gdt.c.o
 .debug_info    0x00007dc5      0x5f2 kernel/CMakeFiles/oboskrnl.dir/keyboard.c.o
 .debug_info    0x000083b7      0x6cc kernel/CMakeFiles/oboskrnl.dir/hashTable.c.o
 .debug_info    0x00008a83      0x75b kernel/CMakeFiles/oboskrnl.dir/liballoc/liballoc_1_1.c.o
 .debug_info    0x000091de      0x4d6 kernel/CMakeFiles/oboskrnl.dir/bitfields.c.o
 .debug_info    0x000096b4     0x16ac kernel/CMakeFiles/oboskrnl.dir/multitasking.c.o
 .debug_info    0x0000ad60      0x268 kernel/CMakeFiles/oboskrnl.dir/error.c.o
 .debug_info    0x0000afc8      0x5ce kernel/CMakeFiles/oboskrnl.dir/mutexes.c.o
 .debug_info    0x0000b596      0x3a6 kernel/CMakeFiles/oboskrnl.dir/syscall.c.o
 .debug_info    0x0000b93c      0x57f kernel/CMakeFiles/oboskrnl.dir/list/list.c.o
 .debug_info    0x0000bebb      0x1cc kernel/CMakeFiles/oboskrnl.dir/list/list_node.c.o
 .debug_info    0x0000c087      0x3d9 kernel/CMakeFiles/oboskrnl.dir/list/list_iterator.c.o
 .debug_info    0x0000c460      0x560 kernel/CMakeFiles/oboskrnl.dir/initrd.c.o

.debug_abbrev   0x00000000     0x2743
 .debug_abbrev  0x00000000       0x1b kernel/CMakeFiles/oboskrnl.dir/kernel_bootstrap-i686.asm.o
 .debug_abbrev  0x0000001b       0x1b kernel/CMakeFiles/oboskrnl.dir/gdtUpdate.asm.o
 .debug_abbrev  0x00000036       0x1b kernel/CMakeFiles/oboskrnl.dir/paging.asm.o
 .debug_abbrev  0x00000051       0x1b kernel/CMakeFiles/oboskrnl.dir/virtual8086.asm.o
 .debug_abbrev  0x0000006c       0x1b kernel/CMakeFiles/oboskrnl.dir/multitasking.asm.o
 .debug_abbrev  0x00000087      0x2f6 kernel/CMakeFiles/oboskrnl.dir/kmain.c.o
 .debug_abbrev  0x0000037d      0x1df kernel/CMakeFiles/oboskrnl.dir/acpi.c.o
 .debug_abbrev  0x0000055c      0x34a kernel/CMakeFiles/oboskrnl.dir/paging.c.o
 .debug_abbrev  0x000008a6      0x251 kernel/CMakeFiles/oboskrnl.dir/terminal.c.o
 .debug_abbrev  0x00000af7      0x139 kernel/CMakeFiles/oboskrnl.dir/inline-asm.c.o
 .debug_abbrev  0x00000c30      0x32a kernel/CMakeFiles/oboskrnl.dir/klog.c.o
 .debug_abbrev  0x00000f5a      0x290 kernel/CMakeFiles/oboskrnl.dir/kserial.c.o
 .debug_abbrev  0x000011ea      0x243 kernel/CMakeFiles/oboskrnl.dir/interrupts.c.o
 .debug_abbrev  0x0000142d      0x124 kernel/CMakeFiles/oboskrnl.dir/gdt.c.o
 .debug_abbrev  0x00001551      0x1a1 kernel/CMakeFiles/oboskrnl.dir/keyboard.c.o
 .debug_abbrev  0x000016f2      0x178 kernel/CMakeFiles/oboskrnl.dir/hashTable.c.o
 .debug_abbrev  0x0000186a      0x201 kernel/CMakeFiles/oboskrnl.dir/liballoc/liballoc_1_1.c.o
 .debug_abbrev  0x00001a6b      0x11c kernel/CMakeFiles/oboskrnl.dir/bitfields.c.o
 .debug_abbrev  0x00001b87      0x354 kernel/CMakeFiles/oboskrnl.dir/multitasking.c.o
 .debug_abbrev  0x00001edb       0xb6 kernel/CMakeFiles/oboskrnl.dir/error.c.o
 .debug_abbrev  0x00001f91      0x185 kernel/CMakeFiles/oboskrnl.dir/mutexes.c.o
 .debug_abbrev  0x00002116      0x10e kernel/CMakeFiles/oboskrnl.dir/syscall.c.o
 .debug_abbrev  0x00002224      0x1ae kernel/CMakeFiles/oboskrnl.dir/list/list.c.o
 .debug_abbrev  0x000023d2       0xbd kernel/CMakeFiles/oboskrnl.dir/list/list_node.c.o
 .debug_abbrev  0x0000248f      0x174 kernel/CMakeFiles/oboskrnl.dir/list/list_iterator.c.o
 .debug_abbrev  0x00002603      0x140 kernel/CMakeFiles/oboskrnl.dir/initrd.c.o

.debug_line     0x00000000     0xbd6b
 .debug_line    0x00000000       0x6e kernel/CMakeFiles/oboskrnl.dir/kernel_bootstrap-i686.asm.o
 .debug_line    0x0000006e      0x161 kernel/CMakeFiles/oboskrnl.dir/gdtUpdate.asm.o
 .debug_line    0x000001cf       0x65 kernel/CMakeFiles/oboskrnl.dir/paging.asm.o
 .debug_line    0x00000234       0x5f kernel/CMakeFiles/oboskrnl.dir/virtual8086.asm.o
 .debug_line    0x00000293       0x71 kernel/CMakeFiles/oboskrnl.dir/multitasking.asm.o
 .debug_line    0x00000304      0x792 kernel/CMakeFiles/oboskrnl.dir/kmain.c.o
 .debug_line    0x00000a96      0x867 kernel/CMakeFiles/oboskrnl.dir/acpi.c.o
 .debug_line    0x000012fd     0x18c8 kernel/CMakeFiles/oboskrnl.dir/paging.c.o
 .debug_line    0x00002bc5      0xb00 kernel/CMakeFiles/oboskrnl.dir/terminal.c.o
 .debug_line    0x000036c5      0xcc9 kernel/CMakeFiles/oboskrnl.dir/inline-asm.c.o
 .debug_line    0x0000438e     0x1024 kernel/CMakeFiles/oboskrnl.dir/klog.c.o
 .debug_line    0x000053b2      0xad0 kernel/CMakeFiles/oboskrnl.dir/kserial.c.o
 .debug_line    0x00005e82      0x9bb kernel/CMakeFiles/oboskrnl.dir/interrupts.c.o
 .debug_line    0x0000683d      0x1b7 kernel/CMakeFiles/oboskrnl.dir/gdt.c.o
 .debug_line    0x000069f4      0x33d kernel/CMakeFiles/oboskrnl.dir/keyboard.c.o
 .debug_line    0x00006d31      0xa87 kernel/CMakeFiles/oboskrnl.dir/hashTable.c.o
 .debug_line    0x000077b8     0x112f kernel/CMakeFiles/oboskrnl.dir/liballoc/liballoc_1_1.c.o
 .debug_line    0x000088e7      0x2ee kernel/CMakeFiles/oboskrnl.dir/bitfields.c.o
 .debug_line    0x00008bd5     0x18d9 kernel/CMakeFiles/oboskrnl.dir/multitasking.c.o
 .debug_line    0x0000a4ae       0xe9 kernel/CMakeFiles/oboskrnl.dir/error.c.o
 .debug_line    0x0000a597      0x640 kernel/CMakeFiles/oboskrnl.dir/mutexes.c.o
 .debug_line    0x0000abd7      0x159 kernel/CMakeFiles/oboskrnl.dir/syscall.c.o
 .debug_line    0x0000ad30      0x847 kernel/CMakeFiles/oboskrnl.dir/list/list.c.o
 .debug_line    0x0000b577      0x18b kernel/CMakeFiles/oboskrnl.dir/list/list_node.c.o
 .debug_line    0x0000b702      0x229 kernel/CMakeFiles/oboskrnl.dir/list/list_iterator.c.o
 .debug_line    0x0000b92b      0x440 kernel/CMakeFiles/oboskrnl.dir/initrd.c.o

.debug_frame    0x00000000     0x21d4
 .debug_frame   0x00000000        0x0 kernel/CMakeFiles/oboskrnl.dir/kernel_bootstrap-i686.asm.o
 .debug_frame   0x00000000        0x0 kernel/CMakeFiles/oboskrnl.dir/gdtUpdate.asm.o
 .debug_frame   0x00000000        0x0 kernel/CMakeFiles/oboskrnl.dir/paging.asm.o
 .debug_frame   0x00000000        0x0 kernel/CMakeFiles/oboskrnl.dir/virtual8086.asm.o
 .debug_frame   0x00000000        0x0 kernel/CMakeFiles/oboskrnl.dir/multitasking.asm.o
 .debug_frame   0x00000000      0x1f8 kernel/CMakeFiles/oboskrnl.dir/kmain.c.o
 .debug_frame   0x000001f8      0x148 kernel/CMakeFiles/oboskrnl.dir/acpi.c.o
 .debug_frame   0x00000340      0x2a0 kernel/CMakeFiles/oboskrnl.dir/paging.c.o
 .debug_frame   0x000005e0      0x270 kernel/CMakeFiles/oboskrnl.dir/terminal.c.o
 .debug_frame   0x00000850      0x1f8 kernel/CMakeFiles/oboskrnl.dir/inline-asm.c.o
 .debug_frame   0x00000a48      0x3f8 kernel/CMakeFiles/oboskrnl.dir/klog.c.o
 .debug_frame   0x00000e40      0x224 kernel/CMakeFiles/oboskrnl.dir/kserial.c.o
 .debug_frame   0x00001064      0x2a8 kernel/CMakeFiles/oboskrnl.dir/interrupts.c.o
 .debug_frame   0x0000130c       0x6c kernel/CMakeFiles/oboskrnl.dir/gdt.c.o
 .debug_frame   0x00001378       0x98 kernel/CMakeFiles/oboskrnl.dir/keyboard.c.o
 .debug_frame   0x00001410       0xf8 kernel/CMakeFiles/oboskrnl.dir/hashTable.c.o
 .debug_frame   0x00001508      0x160 kernel/CMakeFiles/oboskrnl.dir/liballoc/liballoc_1_1.c.o
 .debug_frame   0x00001668      0x184 kernel/CMakeFiles/oboskrnl.dir/bitfields.c.o
 .debug_frame   0x000017ec      0x4a8 kernel/CMakeFiles/oboskrnl.dir/multitasking.c.o
 .debug_frame   0x00001c94       0x6c kernel/CMakeFiles/oboskrnl.dir/error.c.o
 .debug_frame   0x00001d00       0xd4 kernel/CMakeFiles/oboskrnl.dir/mutexes.c.o
 .debug_frame   0x00001dd4       0x40 kernel/CMakeFiles/oboskrnl.dir/syscall.c.o
 .debug_frame   0x00001e14      0x1a0 kernel/CMakeFiles/oboskrnl.dir/list/list.c.o
 .debug_frame   0x00001fb4       0x40 kernel/CMakeFiles/oboskrnl.dir/list/list_node.c.o
 .debug_frame   0x00001ff4       0xc4 kernel/CMakeFiles/oboskrnl.dir/list/list_iterator.c.o
 .debug_frame   0x000020b8      0x11c kernel/CMakeFiles/oboskrnl.dir/initrd.c.o

.debug_loc      0x00000000        0x0
 .debug_loc     0x00000000        0x0 kernel/CMakeFiles/oboskrnl.dir/kernel_bootstrap-i686.asm.o
 .debug_loc     0x00000000        0x0 kernel/CMakeFiles/oboskrnl.dir/gdtUpdate.asm.o
 .debug_loc     0x00000000        0x0 kernel/CMakeFiles/oboskrnl.dir/paging.asm.o
 .debug_loc     0x00000000        0x0 kernel/CMakeFiles/oboskrnl.dir/virtual8086.asm.o
 .debug_loc     0x00000000        0x0 kernel/CMakeFiles/oboskrnl.dir/multitasking.asm.o

.debug_str      0x00000000      0x28b
 .debug_str     0x00000000       0x26 kernel/CMakeFiles/oboskrnl.dir/kmain.c.o
 .debug_str     0x00000026       0x2f kernel/CMakeFiles/oboskrnl.dir/acpi.c.o
 .debug_str     0x00000055       0x62 kernel/CMakeFiles/oboskrnl.dir/paging.c.o
 .debug_str     0x000000b7        0x6 kernel/CMakeFiles/oboskrnl.dir/terminal.c.o
 .debug_str     0x000000bd        0x0 kernel/CMakeFiles/oboskrnl.dir/inline-asm.c.o
 .debug_str     0x000000bd       0x22 kernel/CMakeFiles/oboskrnl.dir/klog.c.o
 .debug_str     0x000000df       0x5b kernel/CMakeFiles/oboskrnl.dir/kserial.c.o
 .debug_str     0x0000013a       0x2b kernel/CMakeFiles/oboskrnl.dir/interrupts.c.o
 .debug_str     0x00000165        0xc kernel/CMakeFiles/oboskrnl.dir/gdt.c.o
 .debug_str     0x00000171        0xa kernel/CMakeFiles/oboskrnl.dir/keyboard.c.o
 .debug_str     0x0000017b        0x6 kernel/CMakeFiles/oboskrnl.dir/hashTable.c.o
 .debug_str     0x00000181       0x26 kernel/CMakeFiles/oboskrnl.dir/liballoc/liballoc_1_1.c.o
 .debug_str     0x000001a7       0x11 kernel/CMakeFiles/oboskrnl.dir/bitfields.c.o
 .debug_str     0x000001b8       0x6d kernel/CMakeFiles/oboskrnl.dir/multitasking.c.o
 .debug_str     0x00000225        0x0 kernel/CMakeFiles/oboskrnl.dir/error.c.o
 .debug_str     0x00000225       0x3f kernel/CMakeFiles/oboskrnl.dir/mutexes.c.o
 .debug_str     0x00000264        0x9 kernel/CMakeFiles/oboskrnl.dir/syscall.c.o
 .debug_str     0x0000026d       0x14 kernel/CMakeFiles/oboskrnl.dir/list/list.c.o
 .debug_str     0x00000281        0x0 kernel/CMakeFiles/oboskrnl.dir/list/list_node.c.o
 .debug_str     0x00000281        0xa kernel/CMakeFiles/oboskrnl.dir/list/list_iterator.c.o
 .debug_str     0x0000028b        0x0 kernel/CMakeFiles/oboskrnl.dir/initrd.c.o

.comment        0x00000000       0x12
 .comment       0x00000000       0x12 kernel/CMakeFiles/oboskrnl.dir/kmain.c.o
                                 0x13 (size before relaxing)
 .comment       0x00000012       0x13 kernel/CMakeFiles/oboskrnl.dir/acpi.c.o
 .comment       0x00000012       0x13 kernel/CMakeFiles/oboskrnl.dir/paging.c.o
 .comment       0x00000012       0x13 kernel/CMakeFiles/oboskrnl.dir/terminal.c.o
 .comment       0x00000012       0x13 kernel/CMakeFiles/oboskrnl.dir/inline-asm.c.o
 .comment       0x00000012       0x13 kernel/CMakeFiles/oboskrnl.dir/klog.c.o
 .comment       0x00000012       0x13 kernel/CMakeFiles/oboskrnl.dir/kserial.c.o
 .comment       0x00000012       0x13 kernel/CMakeFiles/oboskrnl.dir/interrupts.c.o
 .comment       0x00000012       0x13 kernel/CMakeFiles/oboskrnl.dir/gdt.c.o
 .comment       0x00000012       0x13 kernel/CMakeFiles/oboskrnl.dir/keyboard.c.o
 .comment       0x00000012       0x13 kernel/CMakeFiles/oboskrnl.dir/hashTable.c.o
 .comment       0x00000012       0x13 kernel/CMakeFiles/oboskrnl.dir/liballoc/liballoc_1_1.c.o
 .comment       0x00000012       0x13 kernel/CMakeFiles/oboskrnl.dir/bitfields.c.o
 .comment       0x00000012       0x13 kernel/CMakeFiles/oboskrnl.dir/multitasking.c.o
 .comment       0x00000012       0x13 kernel/CMakeFiles/oboskrnl.dir/error.c.o
 .comment       0x00000012       0x13 kernel/CMakeFiles/oboskrnl.dir/mutexes.c.o
 .comment       0x00000012       0x13 kernel/CMakeFiles/oboskrnl.dir/syscall.c.o
 .comment       0x00000012       0x13 kernel/CMakeFiles/oboskrnl.dir/list/list.c.o
 .comment       0x00000012       0x13 kernel/CMakeFiles/oboskrnl.dir/list/list_node.c.o
 .comment       0x00000012       0x13 kernel/CMakeFiles/oboskrnl.dir/list/list_iterator.c.o
 .comment       0x00000012       0x13 kernel/CMakeFiles/oboskrnl.dir/initrd.c.o

.debug_rnglists
                0x00000000       0x51
 .debug_rnglists
                0x00000000       0x32 kernel/CMakeFiles/oboskrnl.dir/paging.c.o
 .debug_rnglists
                0x00000032       0x1f kernel/CMakeFiles/oboskrnl.dir/multitasking.c.o
