
Memory Configuration

Name             Origin             Length             Attributes
*default*        0x0000000000000000 0xffffffffffffffff

Linker script and memory map

LOAD src/drivers/input/ps2Keyboard/CMakeFiles/ps2Keyboard.dir/dmain.c.obj
LOAD src/drivers/input/ps2Keyboard/CMakeFiles/ps2Keyboard.dir/__/__/__/oboskrnl/driver_api/syscall_interface.asm.obj
                0x0000000008000000                . = 0x8000000

.text           0x0000000008000000      0x9b0
 *(.multiboot)
 *(.text)
 .text          0x0000000008000000      0x8b5 src/drivers/input/ps2Keyboard/CMakeFiles/ps2Keyboard.dir/dmain.c.obj
                0x0000000008000064                _start
                0x00000000080001bc                keyboardInterrupt
                0x00000000080006d9                sendCommand
                0x0000000008000835                outb
                0x0000000008000856                outw
                0x0000000008000877                inb
                0x0000000008000895                inw
 *fill*         0x00000000080008b5        0xb 
 .text          0x00000000080008c0       0xf0 src/drivers/input/ps2Keyboard/CMakeFiles/ps2Keyboard.dir/__/__/__/oboskrnl/driver_api/syscall_interface.asm.obj
                0x00000000080008c0                RegisterDriver
                0x00000000080008cf                RegisterInterruptHandler
                0x00000000080008de                PicSendEoi
                0x00000000080008ed                EnableIRQ
                0x00000000080008fc                DisableIRQ
                0x000000000800090b                RegisterReadCallback
                0x000000000800091a                PrintChar
                0x0000000008000929                GetMultibootModule
                0x0000000008000938                RegisterFileReadCallback
                0x0000000008000947                RegisterFileExistsCallback
                0x0000000008000956                MapPhysicalTo
                0x0000000008000965                UnmapPhysicalTo
                0x0000000008000974                Printf
                0x0000000008000983                GetPhysicalAddress
                0x0000000008000992                RegisterRecursiveFileIterateCallback
                0x00000000080009a1                CallSyscall

.iplt           0x00000000080009b0        0x0
 .iplt          0x00000000080009b0        0x0 src/drivers/input/ps2Keyboard/CMakeFiles/ps2Keyboard.dir/dmain.c.obj

.rela.dyn       0x00000000080009b0        0x0
 .rela.got      0x00000000080009b0        0x0 src/drivers/input/ps2Keyboard/CMakeFiles/ps2Keyboard.dir/dmain.c.obj
 .rela.iplt     0x00000000080009b0        0x0 src/drivers/input/ps2Keyboard/CMakeFiles/ps2Keyboard.dir/dmain.c.obj

.rodata
 *(.rodata)

.data           0x0000000008001000      0x858
 *(.data)
 .data          0x0000000008001000      0x858 src/drivers/input/ps2Keyboard/CMakeFiles/ps2Keyboard.dir/dmain.c.obj
                0x0000000008001000                g_keys

.eh_frame       0x0000000008001858      0x178
 .eh_frame      0x0000000008001858      0x178 src/drivers/input/ps2Keyboard/CMakeFiles/ps2Keyboard.dir/dmain.c.obj
                                        0x198 (size before relaxing)

.got            0x00000000080019d0        0x0
 .got           0x00000000080019d0        0x0 src/drivers/input/ps2Keyboard/CMakeFiles/ps2Keyboard.dir/dmain.c.obj

.got.plt        0x00000000080019d0        0x0
 .got.plt       0x00000000080019d0        0x0 src/drivers/input/ps2Keyboard/CMakeFiles/ps2Keyboard.dir/dmain.c.obj

.igot.plt       0x00000000080019d0        0x0
 .igot.plt      0x00000000080019d0        0x0 src/drivers/input/ps2Keyboard/CMakeFiles/ps2Keyboard.dir/dmain.c.obj

.bss            0x0000000008002000     0x2009
 *(COMMON)
 *(.bss)
 .bss           0x0000000008002000     0x2009 src/drivers/input/ps2Keyboard/CMakeFiles/ps2Keyboard.dir/dmain.c.obj
                0x0000000008002000                g_keyBuffer
                0x0000000008004000                g_keyBufferPosition
                0x0000000008004008                flags
OUTPUT(/mnt/c/Code/obos/out/ps2Keyboard elf64-x86-64)

.debug_frame    0x0000000000000000      0x1d8
 .debug_frame   0x0000000000000000      0x1d8 src/drivers/input/ps2Keyboard/CMakeFiles/ps2Keyboard.dir/dmain.c.obj
 .debug_frame   0x00000000000001d8        0x0 src/drivers/input/ps2Keyboard/CMakeFiles/ps2Keyboard.dir/__/__/__/oboskrnl/driver_api/syscall_interface.asm.obj

.debug_info     0x0000000000000000      0xc41
 .debug_info    0x0000000000000000      0xbbe src/drivers/input/ps2Keyboard/CMakeFiles/ps2Keyboard.dir/dmain.c.obj
 .debug_info    0x0000000000000bbe       0x83 src/drivers/input/ps2Keyboard/CMakeFiles/ps2Keyboard.dir/__/__/__/oboskrnl/driver_api/syscall_interface.asm.obj

.debug_abbrev   0x0000000000000000      0x299
 .debug_abbrev  0x0000000000000000      0x27e src/drivers/input/ps2Keyboard/CMakeFiles/ps2Keyboard.dir/dmain.c.obj
 .debug_abbrev  0x000000000000027e       0x1b src/drivers/input/ps2Keyboard/CMakeFiles/ps2Keyboard.dir/__/__/__/oboskrnl/driver_api/syscall_interface.asm.obj

.debug_aranges  0x0000000000000000       0x60
 .debug_aranges
                0x0000000000000000       0x30 src/drivers/input/ps2Keyboard/CMakeFiles/ps2Keyboard.dir/dmain.c.obj
 .debug_aranges
                0x0000000000000030       0x30 src/drivers/input/ps2Keyboard/CMakeFiles/ps2Keyboard.dir/__/__/__/oboskrnl/driver_api/syscall_interface.asm.obj

.debug_line     0x0000000000000000      0xc31
 .debug_line    0x0000000000000000      0xb6d src/drivers/input/ps2Keyboard/CMakeFiles/ps2Keyboard.dir/dmain.c.obj
 .debug_line    0x0000000000000b6d       0xc4 src/drivers/input/ps2Keyboard/CMakeFiles/ps2Keyboard.dir/__/__/__/oboskrnl/driver_api/syscall_interface.asm.obj

.debug_str      0x0000000000000000        0x9
 .debug_str     0x0000000000000000        0x9 src/drivers/input/ps2Keyboard/CMakeFiles/ps2Keyboard.dir/dmain.c.obj

.comment        0x0000000000000000       0x12
 .comment       0x0000000000000000       0x12 src/drivers/input/ps2Keyboard/CMakeFiles/ps2Keyboard.dir/dmain.c.obj
                                         0x13 (size before relaxing)

.debug_pubnames
                0x0000000000000000        0x0
 .debug_pubnames
                0x0000000000000000        0x0 src/drivers/input/ps2Keyboard/CMakeFiles/ps2Keyboard.dir/__/__/__/oboskrnl/driver_api/syscall_interface.asm.obj

.debug_loc      0x0000000000000000        0x0
 .debug_loc     0x0000000000000000        0x0 src/drivers/input/ps2Keyboard/CMakeFiles/ps2Keyboard.dir/__/__/__/oboskrnl/driver_api/syscall_interface.asm.obj
