
Memory Configuration

Name             Origin             Length             Attributes
*default*        0x00000000         0xffffffff

Linker script and memory map

LOAD src/testProgram/CMakeFiles/testProgram.dir/main.c.o
LOAD src/testProgram/CMakeFiles/testProgram.dir/__/oboskrnl/syscalls/syscall_interface.asm.o
                0xe0000000                        . = 0xe0000000

.text           0xe0000000      0x34c
 *(.multiboot)
 *(.text)
 .text          0xe0000000      0x21a src/testProgram/CMakeFiles/testProgram.dir/main.c.o
                0xe00000bb                Thread
                0xe0000133                _start
 *fill*         0xe000021a        0x6 
 .text          0xe0000220      0x12c src/testProgram/CMakeFiles/testProgram.dir/__/oboskrnl/syscalls/syscall_interface.asm.o
                0xe0000220                ConsoleOutputString
                0xe000022c                ExitProcess
                0xe0000238                CreateProcess
                0xe0000244                TerminateProcess
                0xe0000250                OpenCurrentProcessHandle
                0xe000025c                OpenProcessHandle
                0xe0000268                CreateThread
                0xe0000274                OpenThread
                0xe0000280                PauseThread
                0xe000028c                ResumeThread
                0xe0000298                SetThreadPriority
                0xe00002a4                SetThreadStatus
                0xe00002b0                TerminateThread
                0xe00002bc                GetTid
                0xe00002c8                GetExitCode
                0xe00002d4                GetThreadPriority
                0xe00002e0                GetThreadStatus
                0xe00002ec                WaitForThreadExit
                0xe00002f8                ExitThread
                0xe0000304                GetCurrentThreadTid
                0xe0000310                GetCurrentThreadHandle
                0xe000031c                GetCurrentThreadPriority
                0xe0000328                GetCurrentThreadStatus
                0xe0000334                CloseHandle
                0xe0000340                Printf

.iplt           0xe000034c        0x0
 .iplt          0xe000034c        0x0 src/testProgram/CMakeFiles/testProgram.dir/main.c.o

.rodata         0xe0001000       0x89
 *(.rodata)
 .rodata        0xe0001000       0x89 src/testProgram/CMakeFiles/testProgram.dir/main.c.o

.rel.dyn        0xe000108c        0x0
 .rel.got       0xe000108c        0x0 src/testProgram/CMakeFiles/testProgram.dir/main.c.o
 .rel.iplt      0xe000108c        0x0 src/testProgram/CMakeFiles/testProgram.dir/main.c.o

.data           0xe0002000        0x0
 *(.data)
 .data          0xe0002000        0x0 src/testProgram/CMakeFiles/testProgram.dir/main.c.o

.got            0xe000108c        0x0
 .got           0xe000108c        0x0 src/testProgram/CMakeFiles/testProgram.dir/main.c.o

.got.plt        0xe000108c        0x0
 .got.plt       0xe000108c        0x0 src/testProgram/CMakeFiles/testProgram.dir/main.c.o

.igot.plt       0xe000108c        0x0
 .igot.plt      0xe000108c        0x0 src/testProgram/CMakeFiles/testProgram.dir/main.c.o

.bss            0xe0002000        0x0
 *(COMMON)
 *(.bss)
 .bss           0xe0002000        0x0 src/testProgram/CMakeFiles/testProgram.dir/main.c.o
OUTPUT(/mnt/c/Code/obos/out/testProgram elf32-i386)

.debug_frame    0x00000000       0x98
 .debug_frame   0x00000000       0x98 src/testProgram/CMakeFiles/testProgram.dir/main.c.o
 .debug_frame   0x00000098        0x0 src/testProgram/CMakeFiles/testProgram.dir/__/oboskrnl/syscalls/syscall_interface.asm.o

.debug_info     0x00000000      0x444
 .debug_info    0x00000000      0x3d3 src/testProgram/CMakeFiles/testProgram.dir/main.c.o
 .debug_info    0x000003d3       0x71 src/testProgram/CMakeFiles/testProgram.dir/__/oboskrnl/syscalls/syscall_interface.asm.o

.debug_abbrev   0x00000000      0x13f
 .debug_abbrev  0x00000000      0x124 src/testProgram/CMakeFiles/testProgram.dir/main.c.o
 .debug_abbrev  0x00000124       0x1b src/testProgram/CMakeFiles/testProgram.dir/__/oboskrnl/syscalls/syscall_interface.asm.o

.debug_aranges  0x00000000       0x40
 .debug_aranges
                0x00000000       0x20 src/testProgram/CMakeFiles/testProgram.dir/main.c.o
 .debug_aranges
                0x00000020       0x20 src/testProgram/CMakeFiles/testProgram.dir/__/oboskrnl/syscalls/syscall_interface.asm.o

.debug_line     0x00000000      0x439
 .debug_line    0x00000000      0x369 src/testProgram/CMakeFiles/testProgram.dir/main.c.o
 .debug_line    0x00000369       0xd0 src/testProgram/CMakeFiles/testProgram.dir/__/oboskrnl/syscalls/syscall_interface.asm.o

.debug_str      0x00000000        0x0
 .debug_str     0x00000000        0x0 src/testProgram/CMakeFiles/testProgram.dir/main.c.o

.comment        0x00000000       0x12
 .comment       0x00000000       0x12 src/testProgram/CMakeFiles/testProgram.dir/main.c.o
                                 0x13 (size before relaxing)

.debug_pubnames
                0x00000000        0x0
 .debug_pubnames
                0x00000000        0x0 src/testProgram/CMakeFiles/testProgram.dir/__/oboskrnl/syscalls/syscall_interface.asm.o

.debug_loc      0x00000000        0x0
 .debug_loc     0x00000000        0x0 src/testProgram/CMakeFiles/testProgram.dir/__/oboskrnl/syscalls/syscall_interface.asm.o
