
Memory Configuration

Name             Origin             Length             Attributes
*default*        0x0000000000000000 0xffffffffffffffff

Linker script and memory map

LOAD src/testProgram/CMakeFiles/testProgram.dir/main.c.obj
LOAD src/testProgram/CMakeFiles/testProgram.dir/__/oboskrnl/syscalls/syscall_interface.asm.obj
                0x0000000000001000                . = 0x1000

.text           0x0000000000001000      0x855
 *(.multiboot)
 *(.text)
 .text          0x0000000000001000      0x638 src/testProgram/CMakeFiles/testProgram.dir/main.c.obj
                0x000000000000115c                Thread
                0x00000000000013dd                _start
 *fill*         0x0000000000001638        0x8 
 .text          0x0000000000001640      0x215 src/testProgram/CMakeFiles/testProgram.dir/__/oboskrnl/syscalls/syscall_interface.asm.obj
                0x0000000000001640                ConsoleOutputString
                0x000000000000164d                ExitProcess
                0x000000000000165a                CreateProcess
                0x0000000000001667                TerminateProcess
                0x0000000000001674                OpenCurrentProcessHandle
                0x0000000000001681                OpenProcessHandle
                0x000000000000168e                CreateThread
                0x000000000000169b                OpenThread
                0x00000000000016a8                PauseThread
                0x00000000000016b5                ResumeThread
                0x00000000000016c2                SetThreadPriority
                0x00000000000016cf                SetThreadStatus
                0x00000000000016dc                TerminateThread
                0x00000000000016e9                GetTid
                0x00000000000016f6                GetExitCode
                0x0000000000001703                GetThreadPriority
                0x0000000000001710                GetThreadStatus
                0x000000000000171d                WaitForThreadExit
                0x000000000000172a                ExitThread
                0x0000000000001737                GetCurrentThreadTid
                0x0000000000001744                GetCurrentThreadHandle
                0x0000000000001751                GetCurrentThreadPriority
                0x000000000000175e                GetCurrentThreadStatus
                0x000000000000176b                CloseHandle
                0x0000000000001778                OpenProcessParentHandle
                0x0000000000001785                SetConsoleColor
                0x0000000000001792                GetConsoleColor
                0x000000000000179f                ConsoleOutputCharacter
                0x00000000000017ac                ConsoleOutputCharacterAt
                0x00000000000017b9                ConsoleOutput
                0x00000000000017c6                ConsoleFillLine
                0x00000000000017d3                SetConsoleCursorPosition
                0x00000000000017e0                GetConsoleCursorPosition
                0x00000000000017ed                ConsoleSwapBuffers
                0x00000000000017fa                ClearConsole
                0x0000000000001807                VirtualAlloc
                0x0000000000001814                VirtualFree
                0x0000000000001821                HasVirtualAddress
                0x000000000000182e                MemoryProtect
                0x000000000000183b                GetLastError
                0x0000000000001848                SetLastError

.iplt           0x0000000000001855        0x0
 .iplt          0x0000000000001855        0x0 src/testProgram/CMakeFiles/testProgram.dir/main.c.obj

.rodata         0x0000000000002000       0x55
 *(.rodata)
 .rodata        0x0000000000002000       0x55 src/testProgram/CMakeFiles/testProgram.dir/main.c.obj

.rela.dyn       0x0000000000002058        0x0
 .rela.got      0x0000000000002058        0x0 src/testProgram/CMakeFiles/testProgram.dir/main.c.obj
 .rela.iplt     0x0000000000002058        0x0 src/testProgram/CMakeFiles/testProgram.dir/main.c.obj

.data           0x0000000000003000        0x0
 *(.data)
 .data          0x0000000000003000        0x0 src/testProgram/CMakeFiles/testProgram.dir/main.c.obj

.eh_frame       0x0000000000002058       0x9c
 .eh_frame      0x0000000000002058       0x9c src/testProgram/CMakeFiles/testProgram.dir/main.c.obj
                                         0xa8 (size before relaxing)

.got            0x00000000000020f8        0x0
 .got           0x00000000000020f8        0x0 src/testProgram/CMakeFiles/testProgram.dir/main.c.obj

.got.plt        0x00000000000020f8        0x0
 .got.plt       0x00000000000020f8        0x0 src/testProgram/CMakeFiles/testProgram.dir/main.c.obj

.igot.plt       0x00000000000020f8        0x0
 .igot.plt      0x00000000000020f8        0x0 src/testProgram/CMakeFiles/testProgram.dir/main.c.obj

.bss            0x0000000000003000        0x0
 *(COMMON)
 *(.bss)
 .bss           0x0000000000003000        0x0 src/testProgram/CMakeFiles/testProgram.dir/main.c.obj
OUTPUT(/mnt/c/Code/obos/out/testProgram elf64-x86-64)

.debug_frame    0x0000000000000000       0xa8
 .debug_frame   0x0000000000000000       0xa8 src/testProgram/CMakeFiles/testProgram.dir/main.c.obj
 .debug_frame   0x00000000000000a8        0x0 src/testProgram/CMakeFiles/testProgram.dir/__/oboskrnl/syscalls/syscall_interface.asm.obj

.debug_info     0x0000000000000000      0x5f5
 .debug_info    0x0000000000000000      0x574 src/testProgram/CMakeFiles/testProgram.dir/main.c.obj
 .debug_info    0x0000000000000574       0x81 src/testProgram/CMakeFiles/testProgram.dir/__/oboskrnl/syscalls/syscall_interface.asm.obj

.debug_abbrev   0x0000000000000000      0x14e
 .debug_abbrev  0x0000000000000000      0x133 src/testProgram/CMakeFiles/testProgram.dir/main.c.obj
 .debug_abbrev  0x0000000000000133       0x1b src/testProgram/CMakeFiles/testProgram.dir/__/oboskrnl/syscalls/syscall_interface.asm.obj

.debug_aranges  0x0000000000000000       0x60
 .debug_aranges
                0x0000000000000000       0x30 src/testProgram/CMakeFiles/testProgram.dir/main.c.obj
 .debug_aranges
                0x0000000000000030       0x30 src/testProgram/CMakeFiles/testProgram.dir/__/oboskrnl/syscalls/syscall_interface.asm.obj

.debug_line     0x0000000000000000      0x76e
 .debug_line    0x0000000000000000      0x5b8 src/testProgram/CMakeFiles/testProgram.dir/main.c.obj
 .debug_line    0x00000000000005b8      0x1b6 src/testProgram/CMakeFiles/testProgram.dir/__/oboskrnl/syscalls/syscall_interface.asm.obj

.debug_str      0x0000000000000000        0x0
 .debug_str     0x0000000000000000        0x0 src/testProgram/CMakeFiles/testProgram.dir/main.c.obj

.comment        0x0000000000000000       0x12
 .comment       0x0000000000000000       0x12 src/testProgram/CMakeFiles/testProgram.dir/main.c.obj
                                         0x13 (size before relaxing)

.debug_pubnames
                0x0000000000000000        0x0
 .debug_pubnames
                0x0000000000000000        0x0 src/testProgram/CMakeFiles/testProgram.dir/__/oboskrnl/syscalls/syscall_interface.asm.obj

.debug_loc      0x0000000000000000        0x0
 .debug_loc     0x0000000000000000        0x0 src/testProgram/CMakeFiles/testProgram.dir/__/oboskrnl/syscalls/syscall_interface.asm.obj
