
Memory Configuration

Name             Origin             Length             Attributes
*default*        0x0000000000000000 0xffffffffffffffff

Linker script and memory map

LOAD src/drivers/filesystems/ustar/CMakeFiles/ustarFilesystem.dir/dmain.c.obj
LOAD src/drivers/filesystems/ustar/CMakeFiles/ustarFilesystem.dir/__/__/__/oboskrnl/driver_api/syscall_interface.asm.obj
                0x0000000008000000                . = 0x8000000

.text           0x0000000008000000      0x5e0
 *(.multiboot)
 *(.text)
 .text          0x0000000008000000      0x4e1 src/drivers/filesystems/ustar/CMakeFiles/ustarFilesystem.dir/dmain.c.obj
                0x0000000008000000                _start
                0x000000000800010f                oct2bin
                0x0000000008000156                memcmp
                0x00000000080001e5                strlen
                0x0000000008000214                strcmp
 *fill*         0x00000000080004e1        0xf 
 .text          0x00000000080004f0       0xf0 src/drivers/filesystems/ustar/CMakeFiles/ustarFilesystem.dir/__/__/__/oboskrnl/driver_api/syscall_interface.asm.obj
                0x00000000080004f0                RegisterDriver
                0x00000000080004ff                RegisterInterruptHandler
                0x000000000800050e                PicSendEoi
                0x000000000800051d                EnableIRQ
                0x000000000800052c                DisableIRQ
                0x000000000800053b                RegisterReadCallback
                0x000000000800054a                PrintChar
                0x0000000008000559                GetMultibootModule
                0x0000000008000568                RegisterFileReadCallback
                0x0000000008000577                RegisterFileExistsCallback
                0x0000000008000586                MapPhysicalTo
                0x0000000008000595                UnmapPhysicalTo
                0x00000000080005a4                Printf
                0x00000000080005b3                GetPhysicalAddress
                0x00000000080005c2                RegisterRecursiveFileIterateCallback
                0x00000000080005d1                CallSyscall

.iplt           0x00000000080005e0        0x0
 .iplt          0x00000000080005e0        0x0 src/drivers/filesystems/ustar/CMakeFiles/ustarFilesystem.dir/dmain.c.obj

.rodata         0x0000000008001000        0x6
 *(.rodata)
 .rodata        0x0000000008001000        0x6 src/drivers/filesystems/ustar/CMakeFiles/ustarFilesystem.dir/dmain.c.obj

.rela.dyn       0x0000000008001008        0x0
 .rela.got      0x0000000008001008        0x0 src/drivers/filesystems/ustar/CMakeFiles/ustarFilesystem.dir/dmain.c.obj
 .rela.iplt     0x0000000008001008        0x0 src/drivers/filesystems/ustar/CMakeFiles/ustarFilesystem.dir/dmain.c.obj

.data           0x0000000008002000        0x0
 *(.data)
 .data          0x0000000008002000        0x0 src/drivers/filesystems/ustar/CMakeFiles/ustarFilesystem.dir/dmain.c.obj

.eh_frame       0x0000000008001008      0x17c
 .eh_frame      0x0000000008001008      0x17c src/drivers/filesystems/ustar/CMakeFiles/ustarFilesystem.dir/dmain.c.obj
                                        0x198 (size before relaxing)

.got            0x0000000008001188        0x0
 .got           0x0000000008001188        0x0 src/drivers/filesystems/ustar/CMakeFiles/ustarFilesystem.dir/dmain.c.obj

.got.plt        0x0000000008001188        0x0
 .got.plt       0x0000000008001188        0x0 src/drivers/filesystems/ustar/CMakeFiles/ustarFilesystem.dir/dmain.c.obj

.igot.plt       0x0000000008001188        0x0
 .igot.plt      0x0000000008001188        0x0 src/drivers/filesystems/ustar/CMakeFiles/ustarFilesystem.dir/dmain.c.obj

.bss            0x0000000008002000       0x10
 *(COMMON)
 *(.bss)
 .bss           0x0000000008002000       0x10 src/drivers/filesystems/ustar/CMakeFiles/ustarFilesystem.dir/dmain.c.obj
                0x0000000008002000                g_archivePosition
                0x0000000008002008                g_archiveSize
OUTPUT(/mnt/c/Code/obos/out/ustarFilesystem elf64-x86-64)

.debug_frame    0x0000000000000000      0x1a0
 .debug_frame   0x0000000000000000      0x1a0 src/drivers/filesystems/ustar/CMakeFiles/ustarFilesystem.dir/dmain.c.obj
 .debug_frame   0x00000000000001a0        0x0 src/drivers/filesystems/ustar/CMakeFiles/ustarFilesystem.dir/__/__/__/oboskrnl/driver_api/syscall_interface.asm.obj

.debug_info     0x0000000000000000      0xafc
 .debug_info    0x0000000000000000      0xa79 src/drivers/filesystems/ustar/CMakeFiles/ustarFilesystem.dir/dmain.c.obj
 .debug_info    0x0000000000000a79       0x83 src/drivers/filesystems/ustar/CMakeFiles/ustarFilesystem.dir/__/__/__/oboskrnl/driver_api/syscall_interface.asm.obj

.debug_abbrev   0x0000000000000000      0x1b4
 .debug_abbrev  0x0000000000000000      0x199 src/drivers/filesystems/ustar/CMakeFiles/ustarFilesystem.dir/dmain.c.obj
 .debug_abbrev  0x0000000000000199       0x1b src/drivers/filesystems/ustar/CMakeFiles/ustarFilesystem.dir/__/__/__/oboskrnl/driver_api/syscall_interface.asm.obj

.debug_aranges  0x0000000000000000       0x60
 .debug_aranges
                0x0000000000000000       0x30 src/drivers/filesystems/ustar/CMakeFiles/ustarFilesystem.dir/dmain.c.obj
 .debug_aranges
                0x0000000000000030       0x30 src/drivers/filesystems/ustar/CMakeFiles/ustarFilesystem.dir/__/__/__/oboskrnl/driver_api/syscall_interface.asm.obj

.debug_rnglists
                0x0000000000000000       0x75
 .debug_rnglists
                0x0000000000000000       0x75 src/drivers/filesystems/ustar/CMakeFiles/ustarFilesystem.dir/dmain.c.obj

.debug_line     0x0000000000000000      0x96f
 .debug_line    0x0000000000000000      0x8ab src/drivers/filesystems/ustar/CMakeFiles/ustarFilesystem.dir/dmain.c.obj
 .debug_line    0x00000000000008ab       0xc4 src/drivers/filesystems/ustar/CMakeFiles/ustarFilesystem.dir/__/__/__/oboskrnl/driver_api/syscall_interface.asm.obj

.debug_str      0x0000000000000000       0x12
 .debug_str     0x0000000000000000       0x12 src/drivers/filesystems/ustar/CMakeFiles/ustarFilesystem.dir/dmain.c.obj

.comment        0x0000000000000000       0x12
 .comment       0x0000000000000000       0x12 src/drivers/filesystems/ustar/CMakeFiles/ustarFilesystem.dir/dmain.c.obj
                                         0x13 (size before relaxing)

.debug_pubnames
                0x0000000000000000        0x0
 .debug_pubnames
                0x0000000000000000        0x0 src/drivers/filesystems/ustar/CMakeFiles/ustarFilesystem.dir/__/__/__/oboskrnl/driver_api/syscall_interface.asm.obj

.debug_loc      0x0000000000000000        0x0
 .debug_loc     0x0000000000000000        0x0 src/drivers/filesystems/ustar/CMakeFiles/ustarFilesystem.dir/__/__/__/oboskrnl/driver_api/syscall_interface.asm.obj
